
========================================================================

** ELF Header Information

    File Name: .\obj\Smpl_Timer_SR04.axf

    Machine class: ELFCLASS32 (32-bit)
    Data encoding: ELFDATA2LSB (Little endian)
    Header version: EV_CURRENT (Current version)
    Operating System ABI: none
    ABI Version: 0
    File Type: ET_EXEC (Executable) (2)
    Machine: EM_ARM (ARM)

    Image Entry point: 0x000000d5
    Flags: EF_ARM_HASENTRY (0x05000002)

    ARM ELF revision: 5 (ABI version 2)

    Built with
    ARM C/C++ Compiler with , RVCT4.0 [Build 524] for uVision
    ARM Assembler, RVCT4.0 [Build 524]
    ARM Linker, RVCT4.0 [Build 524] for uVision 

    Header size: 52 bytes (0x34)
    Program header entry size: 32 bytes (0x20)
    Section header entry size: 40 bytes (0x28)

    Program header entries: 1
    Section header entries: 16

    Program header offset: 296428 (0x000485ec)
    Section header offset: 296460 (0x0004860c)

    Section header string table index: 15

========================================================================

** Program header #0 (PT_LOAD) [PF_X + PF_W + PF_R + PF_ARM_ENTRY]
    Size : 6456 bytes (5432 bytes in file)
    Virtual address: 0x00000000 (Alignment 8)


========================================================================

** Section #1 'ER_RO' (SHT_PROGBITS) [SHF_ALLOC + SHF_EXECINSTR]
    Size   : 3784 bytes (alignment 4)
    Address: 0x00000000

    $d.realdata
    RESET
    __Vectors
        0x00000000:    20000a70    p..     DCD    536873584
        0x00000004:    000000d5    ....    DCD    213
        0x00000008:    000000f5    ....    DCD    245
        0x0000000c:    000000f7    ....    DCD    247
        0x00000010:    00000000    ....    DCD    0
        0x00000014:    00000000    ....    DCD    0
        0x00000018:    00000000    ....    DCD    0
        0x0000001c:    00000000    ....    DCD    0
        0x00000020:    00000000    ....    DCD    0
        0x00000024:    00000000    ....    DCD    0
        0x00000028:    00000000    ....    DCD    0
        0x0000002c:    000000f9    ....    DCD    249
        0x00000030:    00000000    ....    DCD    0
        0x00000034:    00000000    ....    DCD    0
        0x00000038:    000000fb    ....    DCD    251
        0x0000003c:    000000fd    ....    DCD    253
        0x00000040:    000001bd    ....    DCD    445
        0x00000044:    000000ff    ....    DCD    255
        0x00000048:    000004f9    ....    DCD    1273
        0x0000004c:    00000515    ....    DCD    1301
        0x00000050:    00000531    1...    DCD    1329
        0x00000054:    00000561    a...    DCD    1377
        0x00000058:    000000ff    ....    DCD    255
        0x0000005c:    000000ff    ....    DCD    255
        0x00000060:    00000951    Q...    DCD    2385
        0x00000064:    000000ff    ....    DCD    255
        0x00000068:    0000098d    ....    DCD    2445
        0x0000006c:    000000ff    ....    DCD    255
        0x00000070:    000000ff    ....    DCD    255
        0x00000074:    000000ff    ....    DCD    255
        0x00000078:    000000ff    ....    DCD    255
        0x0000007c:    000000ff    ....    DCD    255
        0x00000080:    000000ff    ....    DCD    255
        0x00000084:    000000ff    ....    DCD    255
        0x00000088:    000000ff    ....    DCD    255
        0x0000008c:    000000ff    ....    DCD    255
        0x00000090:    000000ff    ....    DCD    255
        0x00000094:    000000ff    ....    DCD    255
        0x00000098:    000000ff    ....    DCD    255
        0x0000009c:    000000ff    ....    DCD    255
        0x000000a0:    000000ff    ....    DCD    255
        0x000000a4:    000000ff    ....    DCD    255
        0x000000a8:    000000ff    ....    DCD    255
        0x000000ac:    000000ff    ....    DCD    255
        0x000000b0:    000007ad    ....    DCD    1965
        0x000000b4:    000000ff    ....    DCD    255
        0x000000b8:    000000ff    ....    DCD    255
        0x000000bc:    000000ff    ....    DCD    255
    $t
    .ARM.Collect$$$$00000000
    .ARM.Collect$$$$00000001
    __main
    _main_stk
        0x000000c0:    4803        .H      LDR      r0,__lit__00000000 ; [0xd0] = 0x20000a70
        0x000000c2:    4685        .F      MOV      sp,r0
    .ARM.Collect$$$$00000004
    _main_scatterload
        0x000000c4:    f000f868    ..h.    BL       __scatterload ; 0x198
    .ARM.Collect$$$$00000007
    __main_after_scatterload
    _main_init
        0x000000c8:    4800        .H      LDR      r0,[pc,#0] ; [0xcc] = 0xdf9
        0x000000ca:    4700        .G      BX       r0
    $d
        0x000000cc:    00000df9    ....    DCD    3577
    .ARM.Collect$$$$00002712
    __lit__00000000
        0x000000d0:    20000a70    p..     DCD    536873584
    $t
    .text
    Reset_Handler
        0x000000d4:    480a        .H      LDR      r0,[pc,#40] ; [0x100] = 0x50000100
        0x000000d6:    490b        .I      LDR      r1,[pc,#44] ; [0x104] = 0x59
        0x000000d8:    6001        .`      STR      r1,[r0,#0]
        0x000000da:    490b        .I      LDR      r1,[pc,#44] ; [0x108] = 0x16
        0x000000dc:    6001        .`      STR      r1,[r0,#0]
        0x000000de:    490b        .I      LDR      r1,[pc,#44] ; [0x10c] = 0x88
        0x000000e0:    6001        .`      STR      r1,[r0,#0]
        0x000000e2:    4a0b        .J      LDR      r2,[pc,#44] ; [0x110] = 0x50000024
        0x000000e4:    490b        .I      LDR      r1,[pc,#44] ; [0x114] = 0x5aa5
        0x000000e6:    6011        .`      STR      r1,[r2,#0]
        0x000000e8:    2100        .!      MOVS     r1,#0
        0x000000ea:    6001        .`      STR      r1,[r0,#0]
        0x000000ec:    480a        .H      LDR      r0,[pc,#40] ; [0x118] = 0x94d
        0x000000ee:    4780        .G      BLX      r0
        0x000000f0:    480a        .H      LDR      r0,[pc,#40] ; [0x11c] = 0xc1
        0x000000f2:    4700        .G      BX       r0
    NMI_Handler
        0x000000f4:    e7fe        ..      B        NMI_Handler ; 0xf4
    HardFault_Handler
        0x000000f6:    e7fe        ..      B        HardFault_Handler ; 0xf6
    SVC_Handler
        0x000000f8:    e7fe        ..      B        SVC_Handler ; 0xf8
    PendSV_Handler
        0x000000fa:    e7fe        ..      B        PendSV_Handler ; 0xfa
    SysTick_Handler
        0x000000fc:    e7fe        ..      B        SysTick_Handler ; 0xfc
    Default_Handler
    ACMP_IRQHandler
    ADC_IRQHandler
    CAN0_IRQHandler
    I2C0_IRQHandler
    I2C1_IRQHandler
    I2S_IRQHandler
    PDMA_IRQHandler
    PS2_IRQHandler
    PWMA_IRQHandler
    PWMB_IRQHandler
    RTC_IRQHandler
    SPI0_IRQHandler
    SPI1_IRQHandler
    SPI2_IRQHandler
    SPI3_IRQHandler
    TMR1_IRQHandler
    TMR3_IRQHandler
    UART02_IRQHandler
    UART1_IRQHandler
    USBD_IRQHandler
    WDT_IRQHandler
        0x000000fe:    e7fe        ..      B        Default_Handler ; 0xfe
    $d
        0x00000100:    50000100    ...P    DCD    1342177536
        0x00000104:    00000059    Y...    DCD    89
        0x00000108:    00000016    ....    DCD    22
        0x0000010c:    00000088    ....    DCD    136
        0x00000110:    50000024    $..P    DCD    1342177316
        0x00000114:    00005aa5    .Z..    DCD    23205
        0x00000118:    0000094d    M...    DCD    2381
        0x0000011c:    000000c1    ....    DCD    193
    $t
    .text
    __aeabi_uidiv
    __aeabi_uidivmod
        0x00000120:    b530        0.      PUSH     {r4,r5,lr}
        0x00000122:    460b        .F      MOV      r3,r1
        0x00000124:    4601        .F      MOV      r1,r0
        0x00000126:    2000        .       MOVS     r0,#0
        0x00000128:    2220         "      MOVS     r2,#0x20
        0x0000012a:    2401        .$      MOVS     r4,#1
        0x0000012c:    e009        ..      B        0x142 ; __aeabi_uidiv + 34
        0x0000012e:    460d        .F      MOV      r5,r1
        0x00000130:    40d5        .@      LSRS     r5,r5,r2
        0x00000132:    429d        .B      CMP      r5,r3
        0x00000134:    d305        ..      BCC      0x142 ; __aeabi_uidiv + 34
        0x00000136:    461d        .F      MOV      r5,r3
        0x00000138:    4095        .@      LSLS     r5,r5,r2
        0x0000013a:    1b49        I.      SUBS     r1,r1,r5
        0x0000013c:    4625        %F      MOV      r5,r4
        0x0000013e:    4095        .@      LSLS     r5,r5,r2
        0x00000140:    1940        @.      ADDS     r0,r0,r5
        0x00000142:    4615        .F      MOV      r5,r2
        0x00000144:    1e52        R.      SUBS     r2,r2,#1
        0x00000146:    2d00        .-      CMP      r5,#0
        0x00000148:    dcf1        ..      BGT      0x12e ; __aeabi_uidiv + 14
        0x0000014a:    bd30        0.      POP      {r4,r5,pc}
    .text
    __aeabi_idiv
    __aeabi_idivmod
        0x0000014c:    b570        p.      PUSH     {r4-r6,lr}
        0x0000014e:    2400        .$      MOVS     r4,#0
        0x00000150:    4625        %F      MOV      r5,r4
        0x00000152:    2800        .(      CMP      r0,#0
        0x00000154:    da01        ..      BGE      0x15a ; __aeabi_idiv + 14
        0x00000156:    2401        .$      MOVS     r4,#1
        0x00000158:    4240        @B      RSBS     r0,r0,#0
        0x0000015a:    2900        .)      CMP      r1,#0
        0x0000015c:    da01        ..      BGE      0x162 ; __aeabi_idiv + 22
        0x0000015e:    2501        .%      MOVS     r5,#1
        0x00000160:    4249        IB      RSBS     r1,r1,#0
        0x00000162:    f7ffffdd    ....    BL       __aeabi_uidiv ; 0x120
        0x00000166:    42ac        .B      CMP      r4,r5
        0x00000168:    d000        ..      BEQ      0x16c ; __aeabi_idiv + 32
        0x0000016a:    4240        @B      RSBS     r0,r0,#0
        0x0000016c:    2c00        .,      CMP      r4,#0
        0x0000016e:    d000        ..      BEQ      0x172 ; __aeabi_idiv + 38
        0x00000170:    4249        IB      RSBS     r1,r1,#0
        0x00000172:    bd70        p.      POP      {r4-r6,pc}
    .text
    rand
        0x00000174:    4905        .I      LDR      r1,[pc,#20] ; [0x18c] = 0x2000066c
        0x00000176:    4a06        .J      LDR      r2,[pc,#24] ; [0x190] = 0x41c64e6d
        0x00000178:    6808        .h      LDR      r0,[r1,#0]
        0x0000017a:    4350        PC      MULS     r0,r2,r0
        0x0000017c:    4a05        .J      LDR      r2,[pc,#20] ; [0x194] = 0x3039
        0x0000017e:    1880        ..      ADDS     r0,r0,r2
        0x00000180:    6008        .`      STR      r0,[r1,#0]
        0x00000182:    0840        @.      LSRS     r0,r0,#1
        0x00000184:    4770        pG      BX       lr
    srand
        0x00000186:    4901        .I      LDR      r1,[pc,#4] ; [0x18c] = 0x2000066c
        0x00000188:    6008        .`      STR      r0,[r1,#0]
        0x0000018a:    4770        pG      BX       lr
    $d
        0x0000018c:    2000066c    l..     DCD    536872556
        0x00000190:    41c64e6d    mN.A    DCD    1103515245
        0x00000194:    00003039    90..    DCD    12345
    $t
    .text
    __scatterload
    __scatterload_rt2
        0x00000198:    4c06        .L      LDR      r4,[pc,#24] ; [0x1b4] = 0xea8
        0x0000019a:    2501        .%      MOVS     r5,#1
        0x0000019c:    4e06        .N      LDR      r6,[pc,#24] ; [0x1b8] = 0xec8
        0x0000019e:    e005        ..      B        0x1ac ; __scatterload + 20
        0x000001a0:    4620         F      MOV      r0,r4
        0x000001a2:    68e3        .h      LDR      r3,[r4,#0xc]
        0x000001a4:    c807        ..      LDM      r0,{r0-r2}
        0x000001a6:    432b        +C      ORRS     r3,r3,r5
        0x000001a8:    4798        .G      BLX      r3
        0x000001aa:    3410        .4      ADDS     r4,r4,#0x10
        0x000001ac:    42b4        .B      CMP      r4,r6
        0x000001ae:    d3f7        ..      BCC      0x1a0 ; __scatterload + 8
        0x000001b0:    f7ffff8a    ....    BL       __main_after_scatterload ; 0xc8
    $d
        0x000001b4:    00000ea8    ....    DCD    3752
        0x000001b8:    00000ec8    ....    DCD    3784
    $t
    i.BOD_IRQHandler
    BOD_IRQHandler
        0x000001bc:    2005        .       MOVS     r0,#5
        0x000001be:    0700        ..      LSLS     r0,r0,#28
        0x000001c0:    6981        .i      LDR      r1,[r0,#0x18]
        0x000001c2:    2210        ."      MOVS     r2,#0x10
        0x000001c4:    4311        .C      ORRS     r1,r1,r2
        0x000001c6:    6181        .a      STR      r1,[r0,#0x18]
        0x000001c8:    4802        .H      LDR      r0,[pc,#8] ; [0x1d4] = 0x20000654
        0x000001ca:    6800        .h      LDR      r0,[r0,#0]
        0x000001cc:    2800        .(      CMP      r0,#0
        0x000001ce:    d000        ..      BEQ      0x1d2 ; BOD_IRQHandler + 22
        0x000001d0:    4700        .G      BX       r0
        0x000001d2:    4770        pG      BX       lr
    $d
        0x000001d4:    20000654    T..     DCD    536872532
    $t
    i.DistMeasure
    DistMeasure
        0x000001d8:    b510        ..      PUSH     {r4,lr}
        0x000001da:    f000faf7    ....    BL       SR04_Trigger ; 0x7cc
        0x000001de:    4810        .H      LDR      r0,[pc,#64] ; [0x220] = 0x9c40
        0x000001e0:    f000f858    ..X.    BL       DrvSYS_Delay ; 0x294
        0x000001e4:    4c0f        .L      LDR      r4,[pc,#60] ; [0x224] = 0x2000061c
        0x000001e6:    6860        `h      LDR      r0,[r4,#4]
        0x000001e8:    2801        .(      CMP      r0,#1
        0x000001ea:    d114        ..      BNE      0x216 ; DistMeasure + 62
        0x000001ec:    2000        .       MOVS     r0,#0
        0x000001ee:    6060        ``      STR      r0,[r4,#4]
        0x000001f0:    6820         h      LDR      r0,[r4,#0]
        0x000001f2:    21aa        .!      MOVS     r1,#0xaa
        0x000001f4:    4348        HC      MULS     r0,r1,r0
        0x000001f6:    217d        }!      MOVS     r1,#0x7d
        0x000001f8:    00c9        ..      LSLS     r1,r1,#3
        0x000001fa:    f7ffff91    ....    BL       __aeabi_uidiv ; 0x120
        0x000001fe:    4602        .F      MOV      r2,r0
        0x00000200:    60e0        .`      STR      r0,[r4,#0xc]
        0x00000202:    4620         F      MOV      r0,r4
        0x00000204:    a108        ..      ADR      r1,{pc}+0x24 ; 0x228
        0x00000206:    301b        .0      ADDS     r0,r0,#0x1b
        0x00000208:    f000fbf2    ....    BL       __0sprintf$6 ; 0x9f0
        0x0000020c:    4621        !F      MOV      r1,r4
        0x0000020e:    3115        .1      ADDS     r1,r1,#0x15
        0x00000210:    2002        .       MOVS     r0,#2
        0x00000212:    f000fe37    ..7.    BL       print_lcd ; 0xe84
        0x00000216:    4807        .H      LDR      r0,[pc,#28] ; [0x234] = 0x2710
        0x00000218:    f000f83c    ..<.    BL       DrvSYS_Delay ; 0x294
        0x0000021c:    68e0        .h      LDR      r0,[r4,#0xc]
        0x0000021e:    bd10        ..      POP      {r4,pc}
    $d
        0x00000220:    00009c40    @...    DCD    40000
        0x00000224:    2000061c    ...     DCD    536872476
        0x00000228:    20642520     %d     DCD    543434016
        0x0000022c:    20206d6d    mm      DCD    538996077
        0x00000230:    00000000    ....    DCD    0
        0x00000234:    00002710    .'..    DCD    10000
    $t
    i.DrvGPIO_Open
    DrvGPIO_Open
        0x00000238:    4603        .F      MOV      r3,r0
        0x0000023a:    b510        ..      PUSH     {r4,lr}
        0x0000023c:    4813        .H      LDR      r0,[pc,#76] ; [0x28c] = 0xffff8901
        0x0000023e:    2911        .)      CMP      r1,#0x11
        0x00000240:    d222        ".      BCS      0x288 ; DrvGPIO_Open + 80
        0x00000242:    4c13        .L      LDR      r4,[pc,#76] ; [0x290] = 0x50004000
        0x00000244:    019b        ..      LSLS     r3,r3,#6
        0x00000246:    191b        ..      ADDS     r3,r3,r4
        0x00000248:    2403        .$      MOVS     r4,#3
        0x0000024a:    0049        I.      LSLS     r1,r1,#1
        0x0000024c:    408c        .@      LSLS     r4,r4,r1
        0x0000024e:    2a00        .*      CMP      r2,#0
        0x00000250:    d003        ..      BEQ      0x25a ; DrvGPIO_Open + 34
        0x00000252:    2a01        .*      CMP      r2,#1
        0x00000254:    d001        ..      BEQ      0x25a ; DrvGPIO_Open + 34
        0x00000256:    2a02        .*      CMP      r2,#2
        0x00000258:    d110        ..      BNE      0x27c ; DrvGPIO_Open + 68
        0x0000025a:    6818        .h      LDR      r0,[r3,#0]
        0x0000025c:    43a0        .C      BICS     r0,r0,r4
        0x0000025e:    6018        .`      STR      r0,[r3,#0]
        0x00000260:    2a01        .*      CMP      r2,#1
        0x00000262:    d103        ..      BNE      0x26c ; DrvGPIO_Open + 52
        0x00000264:    6818        .h      LDR      r0,[r3,#0]
        0x00000266:    408a        .@      LSLS     r2,r2,r1
        0x00000268:    4310        .C      ORRS     r0,r0,r2
        0x0000026a:    e00b        ..      B        0x284 ; DrvGPIO_Open + 76
        0x0000026c:    2a02        .*      CMP      r2,#2
        0x0000026e:    d10a        ..      BNE      0x286 ; DrvGPIO_Open + 78
        0x00000270:    681a        .h      LDR      r2,[r3,#0]
        0x00000272:    2002        .       MOVS     r0,#2
        0x00000274:    4088        .@      LSLS     r0,r0,r1
        0x00000276:    4302        .C      ORRS     r2,r2,r0
        0x00000278:    601a        .`      STR      r2,[r3,#0]
        0x0000027a:    e004        ..      B        0x286 ; DrvGPIO_Open + 78
        0x0000027c:    2a03        .*      CMP      r2,#3
        0x0000027e:    d103        ..      BNE      0x288 ; DrvGPIO_Open + 80
        0x00000280:    6818        .h      LDR      r0,[r3,#0]
        0x00000282:    4320         C      ORRS     r0,r0,r4
        0x00000284:    6018        .`      STR      r0,[r3,#0]
        0x00000286:    2000        .       MOVS     r0,#0
        0x00000288:    bd10        ..      POP      {r4,pc}
    $d
        0x0000028a:    0000        ..      DCW    0
        0x0000028c:    ffff8901    ....    DCD    4294936833
        0x00000290:    50004000    .@.P    DCD    1342193664
    $t
    i.DrvSYS_Delay
    DrvSYS_Delay
        0x00000294:    4906        .I      LDR      r1,[pc,#24] ; [0x2b0] = 0x20000004
        0x00000296:    6809        .h      LDR      r1,[r1,#0]
        0x00000298:    4348        HC      MULS     r0,r1,r0
        0x0000029a:    4906        .I      LDR      r1,[pc,#24] ; [0x2b4] = 0xe000e000
        0x0000029c:    6148        Ha      STR      r0,[r1,#0x14]
        0x0000029e:    2000        .       MOVS     r0,#0
        0x000002a0:    6188        .a      STR      r0,[r1,#0x18]
        0x000002a2:    2005        .       MOVS     r0,#5
        0x000002a4:    6108        .a      STR      r0,[r1,#0x10]
        0x000002a6:    6908        .i      LDR      r0,[r1,#0x10]
        0x000002a8:    03c0        ..      LSLS     r0,r0,#15
        0x000002aa:    d5fc        ..      BPL      0x2a6 ; DrvSYS_Delay + 18
        0x000002ac:    4770        pG      BX       lr
    $d
        0x000002ae:    0000        ..      DCW    0
        0x000002b0:    20000004    ...     DCD    536870916
        0x000002b4:    e000e000    ....    DCD    3758153728
    $t
    i.DrvSYS_GetChipClockSourceStatus
    DrvSYS_GetChipClockSourceStatus
        0x000002b8:    b500        ..      PUSH     {lr}
        0x000002ba:    490d        .I      LDR      r1,[pc,#52] ; [0x2f0] = 0x50000200
        0x000002bc:    4603        .F      MOV      r3,r0
        0x000002be:    f000fbab    ....    BL       __ARM_common_switch8 ; 0xa18
    $d
        0x000002c2:    0405        ..      DCW    1029
        0x000002c4:    110e0b08    ....    DCD    286133000
        0x000002c8:    0015        ..      DCW    21
    $t
        0x000002ca:    68c8        .h      LDR      r0,[r1,#0xc]
        0x000002cc:    07c0        ..      LSLS     r0,r0,#31
        0x000002ce:    0fc0        ..      LSRS     r0,r0,#31
        0x000002d0:    bd00        ..      POP      {pc}
        0x000002d2:    68c8        .h      LDR      r0,[r1,#0xc]
        0x000002d4:    0780        ..      LSLS     r0,r0,#30
        0x000002d6:    e007        ..      B        0x2e8 ; DrvSYS_GetChipClockSourceStatus + 48
        0x000002d8:    68c8        .h      LDR      r0,[r1,#0xc]
        0x000002da:    06c0        ..      LSLS     r0,r0,#27
        0x000002dc:    e004        ..      B        0x2e8 ; DrvSYS_GetChipClockSourceStatus + 48
        0x000002de:    68c8        .h      LDR      r0,[r1,#0xc]
        0x000002e0:    0700        ..      LSLS     r0,r0,#28
        0x000002e2:    e001        ..      B        0x2e8 ; DrvSYS_GetChipClockSourceStatus + 48
        0x000002e4:    68c8        .h      LDR      r0,[r1,#0xc]
        0x000002e6:    0740        @.      LSLS     r0,r0,#29
        0x000002e8:    0fc0        ..      LSRS     r0,r0,#31
        0x000002ea:    bd00        ..      POP      {pc}
        0x000002ec:    4801        .H      LDR      r0,[pc,#4] ; [0x2f4] = 0xffff9603
        0x000002ee:    bd00        ..      POP      {pc}
    $d
        0x000002f0:    50000200    ...P    DCD    1342177792
        0x000002f4:    ffff9603    ....    DCD    4294940163
    $t
    i.DrvSYS_GetPLLContent
    DrvSYS_GetPLLContent
        0x000002f8:    b5f8        ..      PUSH     {r3-r7,lr}
        0x000002fa:    4602        .F      MOV      r2,r0
        0x000002fc:    4608        .F      MOV      r0,r1
        0x000002fe:    4920         I      LDR      r1,[pc,#128] ; [0x380] = 0xfa0a1eff
        0x00000300:    4b20         K      LDR      r3,[pc,#128] ; [0x384] = 0x5f5e0ff
        0x00000302:    4e1e        .N      LDR      r6,[pc,#120] ; [0x37c] = 0xb71b00
        0x00000304:    1841        A.      ADDS     r1,r0,r1
        0x00000306:    4299        .B      CMP      r1,r3
        0x00000308:    d801        ..      BHI      0x30e ; DrvSYS_GetPLLContent + 22
        0x0000030a:    2500        .%      MOVS     r5,#0
        0x0000030c:    e00f        ..      B        0x32e ; DrvSYS_GetPLLContent + 54
        0x0000030e:    491e        .I      LDR      r1,[pc,#120] ; [0x388] = 0xfd050f7f
        0x00000310:    4b1e        .K      LDR      r3,[pc,#120] ; [0x38c] = 0x2faf07f
        0x00000312:    1841        A.      ADDS     r1,r0,r1
        0x00000314:    4299        .B      CMP      r1,r3
        0x00000316:    d802        ..      BHI      0x31e ; DrvSYS_GetPLLContent + 38
        0x00000318:    2501        .%      MOVS     r5,#1
        0x0000031a:    0040        @.      LSLS     r0,r0,#1
        0x0000031c:    e007        ..      B        0x32e ; DrvSYS_GetPLLContent + 54
        0x0000031e:    491c        .I      LDR      r1,[pc,#112] ; [0x390] = 0xfe8287c0
        0x00000320:    4b1b        .K      LDR      r3,[pc,#108] ; [0x390] = 0xfe8287c0
        0x00000322:    1841        A.      ADDS     r1,r0,r1
        0x00000324:    425b        [B      RSBS     r3,r3,#0
        0x00000326:    4299        .B      CMP      r1,r3
        0x00000328:    d810        ..      BHI      0x34c ; DrvSYS_GetPLLContent + 84
        0x0000032a:    2503        .%      MOVS     r5,#3
        0x0000032c:    0080        ..      LSLS     r0,r0,#2
        0x0000032e:    2a00        .*      CMP      r2,#0
        0x00000330:    d002        ..      BEQ      0x338 ; DrvSYS_GetPLLContent + 64
        0x00000332:    2a01        .*      CMP      r2,#1
        0x00000334:    d100        ..      BNE      0x338 ; DrvSYS_GetPLLContent + 64
        0x00000336:    4e17        .N      LDR      r6,[pc,#92] ; [0x394] = 0x1518000
        0x00000338:    4f17        .O      LDR      r7,[pc,#92] ; [0x398] = 0xf4240
        0x0000033a:    4639        9F      MOV      r1,r7
        0x0000033c:    f7fffef0    ....    BL       __aeabi_uidiv ; 0x120
        0x00000340:    4604        .F      MOV      r4,r0
        0x00000342:    4639        9F      MOV      r1,r7
        0x00000344:    4630        0F      MOV      r0,r6
        0x00000346:    f7fffeeb    ....    BL       __aeabi_uidiv ; 0x120
        0x0000034a:    e001        ..      B        0x350 ; DrvSYS_GetPLLContent + 88
        0x0000034c:    4813        .H      LDR      r0,[pc,#76] ; [0x39c] = 0xc22e
        0x0000034e:    bdf8        ..      POP      {r3-r7,pc}
        0x00000350:    4601        .F      MOV      r1,r0
        0x00000352:    4321        !C      ORRS     r1,r1,r4
        0x00000354:    07c9        ..      LSLS     r1,r1,#31
        0x00000356:    d106        ..      BNE      0x366 ; DrvSYS_GetPLLContent + 110
        0x00000358:    2802        .(      CMP      r0,#2
        0x0000035a:    d004        ..      BEQ      0x366 ; DrvSYS_GetPLLContent + 110
        0x0000035c:    2c02        .,      CMP      r4,#2
        0x0000035e:    d002        ..      BEQ      0x366 ; DrvSYS_GetPLLContent + 110
        0x00000360:    0840        @.      LSRS     r0,r0,#1
        0x00000362:    0864        d.      LSRS     r4,r4,#1
        0x00000364:    e7f4        ..      B        0x350 ; DrvSYS_GetPLLContent + 88
        0x00000366:    2201        ."      MOVS     r2,#1
        0x00000368:    0240        @.      LSLS     r0,r0,#9
        0x0000036a:    0292        ..      LSLS     r2,r2,#10
        0x0000036c:    03a9        ..      LSLS     r1,r5,#14
        0x0000036e:    1a80        ..      SUBS     r0,r0,r2
        0x00000370:    4301        .C      ORRS     r1,r1,r0
        0x00000372:    1ea4        ..      SUBS     r4,r4,#2
        0x00000374:    4321        !C      ORRS     r1,r1,r4
        0x00000376:    4608        .F      MOV      r0,r1
        0x00000378:    bdf8        ..      POP      {r3-r7,pc}
    $d
        0x0000037a:    0000        ..      DCW    0
        0x0000037c:    00b71b00    ....    DCD    12000000
        0x00000380:    fa0a1eff    ....    DCD    4194967295
        0x00000384:    05f5e0ff    ....    DCD    99999999
        0x00000388:    fd050f7f    ....    DCD    4244967295
        0x0000038c:    02faf07f    ....    DCD    49999999
        0x00000390:    fe8287c0    ....    DCD    4269967296
        0x00000394:    01518000    ..Q.    DCD    22118400
        0x00000398:    000f4240    @B..    DCD    1000000
        0x0000039c:    0000c22e    ....    DCD    49710
    $t
    i.DrvSYS_IsProtectedRegLocked
    DrvSYS_IsProtectedRegLocked
        0x000003a0:    4802        .H      LDR      r0,[pc,#8] ; [0x3ac] = 0x50000100
        0x000003a2:    6800        .h      LDR      r0,[r0,#0]
        0x000003a4:    07c0        ..      LSLS     r0,r0,#31
        0x000003a6:    0fc0        ..      LSRS     r0,r0,#31
        0x000003a8:    4770        pG      BX       lr
    $d
        0x000003aa:    0000        ..      DCW    0
        0x000003ac:    50000100    ...P    DCD    1342177536
    $t
    i.DrvSYS_Open
    DrvSYS_Open
        0x000003b0:    4601        .F      MOV      r1,r0
        0x000003b2:    b570        p.      PUSH     {r4-r6,lr}
        0x000003b4:    481b        .H      LDR      r0,[pc,#108] ; [0x424] = 0xfe8287c0
        0x000003b6:    4b1c        .K      LDR      r3,[pc,#112] ; [0x428] = 0x17d7841
        0x000003b8:    2200        ."      MOVS     r2,#0
        0x000003ba:    1808        ..      ADDS     r0,r1,r0
        0x000003bc:    4298        .B      CMP      r0,r3
        0x000003be:    d301        ..      BCC      0x3c4 ; DrvSYS_Open + 20
        0x000003c0:    481a        .H      LDR      r0,[pc,#104] ; [0x42c] = 0xffff9606
        0x000003c2:    bd70        p.      POP      {r4-r6,pc}
        0x000003c4:    f7ffffec    ....    BL       DrvSYS_IsProtectedRegLocked ; 0x3a0
        0x000003c8:    2800        .(      CMP      r0,#0
        0x000003ca:    d102        ..      BNE      0x3d2 ; DrvSYS_Open + 34
        0x000003cc:    4817        .H      LDR      r0,[pc,#92] ; [0x42c] = 0xffff9606
        0x000003ce:    1c40        @.      ADDS     r0,r0,#1
        0x000003d0:    bd70        p.      POP      {r4-r6,pc}
        0x000003d2:    4d17        .M      LDR      r5,[pc,#92] ; [0x430] = 0x50000200
        0x000003d4:    6a28        (j      LDR      r0,[r5,#0x20]
        0x000003d6:    0300        ..      LSLS     r0,r0,#12
        0x000003d8:    6828        (h      LDR      r0,[r5,#0]
        0x000003da:    d403        ..      BMI      0x3e4 ; DrvSYS_Open + 52
        0x000003dc:    2301        .#      MOVS     r3,#1
        0x000003de:    4318        .C      ORRS     r0,r0,r3
        0x000003e0:    6028        (`      STR      r0,[r5,#0]
        0x000003e2:    e003        ..      B        0x3ec ; DrvSYS_Open + 60
        0x000003e4:    2204        ."      MOVS     r2,#4
        0x000003e6:    4310        .C      ORRS     r0,r0,r2
        0x000003e8:    6028        (`      STR      r0,[r5,#0]
        0x000003ea:    2201        ."      MOVS     r2,#1
        0x000003ec:    4610        .F      MOV      r0,r2
        0x000003ee:    f7ffff83    ....    BL       DrvSYS_GetPLLContent ; 0x2f8
        0x000003f2:    4c10        .L      LDR      r4,[pc,#64] ; [0x434] = 0x2710
        0x000003f4:    2100        .!      MOVS     r1,#0
        0x000003f6:    1c49        I.      ADDS     r1,r1,#1
        0x000003f8:    42a1        .B      CMP      r1,r4
        0x000003fa:    d3fc        ..      BCC      0x3f6 ; DrvSYS_Open + 70
        0x000003fc:    f000f85e    ..^.    BL       DrvSYS_SetPLLContent ; 0x4bc
        0x00000400:    6a28        (j      LDR      r0,[r5,#0x20]
        0x00000402:    2101        .!      MOVS     r1,#1
        0x00000404:    0489        ..      LSLS     r1,r1,#18
        0x00000406:    4388        .C      BICS     r0,r0,r1
        0x00000408:    6228        (b      STR      r0,[r5,#0x20]
        0x0000040a:    6a28        (j      LDR      r0,[r5,#0x20]
        0x0000040c:    1089        ..      ASRS     r1,r1,#2
        0x0000040e:    4388        .C      BICS     r0,r0,r1
        0x00000410:    6228        (b      STR      r0,[r5,#0x20]
        0x00000412:    2000        .       MOVS     r0,#0
        0x00000414:    1c40        @.      ADDS     r0,r0,#1
        0x00000416:    42a0        .B      CMP      r0,r4
        0x00000418:    d3fc        ..      BCC      0x414 ; DrvSYS_Open + 100
        0x0000041a:    2002        .       MOVS     r0,#2
        0x0000041c:    f000f80c    ....    BL       DrvSYS_SelectHCLKSource ; 0x438
        0x00000420:    2000        .       MOVS     r0,#0
        0x00000422:    bd70        p.      POP      {r4-r6,pc}
    $d
        0x00000424:    fe8287c0    ....    DCD    4269967296
        0x00000428:    017d7841    Ax}.    DCD    25000001
        0x0000042c:    ffff9606    ....    DCD    4294940166
        0x00000430:    50000200    ...P    DCD    1342177792
        0x00000434:    00002710    .'..    DCD    10000
    $t
    i.DrvSYS_SelectHCLKSource
    DrvSYS_SelectHCLKSource
        0x00000438:    b510        ..      PUSH     {r4,lr}
        0x0000043a:    2807        .(      CMP      r0,#7
        0x0000043c:    d802        ..      BHI      0x444 ; DrvSYS_SelectHCLKSource + 12
        0x0000043e:    1f01        ..      SUBS     r1,r0,#4
        0x00000440:    2903        .)      CMP      r1,#3
        0x00000442:    d201        ..      BCS      0x448 ; DrvSYS_SelectHCLKSource + 16
        0x00000444:    4806        .H      LDR      r0,[pc,#24] ; [0x460] = 0xffff9603
        0x00000446:    bd10        ..      POP      {r4,pc}
        0x00000448:    4906        .I      LDR      r1,[pc,#24] ; [0x464] = 0x50000200
        0x0000044a:    690a        .i      LDR      r2,[r1,#0x10]
        0x0000044c:    0740        @.      LSLS     r0,r0,#29
        0x0000044e:    08d2        ..      LSRS     r2,r2,#3
        0x00000450:    00d2        ..      LSLS     r2,r2,#3
        0x00000452:    0f40        @.      LSRS     r0,r0,#29
        0x00000454:    4302        .C      ORRS     r2,r2,r0
        0x00000456:    610a        .a      STR      r2,[r1,#0x10]
        0x00000458:    f000fa36    ..6.    BL       SystemCoreClockUpdate ; 0x8c8
        0x0000045c:    2000        .       MOVS     r0,#0
        0x0000045e:    bd10        ..      POP      {r4,pc}
    $d
        0x00000460:    ffff9603    ....    DCD    4294940163
        0x00000464:    50000200    ...P    DCD    1342177792
    $t
    i.DrvSYS_SetOscCtrl
    DrvSYS_SetOscCtrl
        0x00000468:    4a12        .J      LDR      r2,[pc,#72] ; [0x4b4] = 0x50000200
        0x0000046a:    2800        .(      CMP      r0,#0
        0x0000046c:    d00b        ..      BEQ      0x486 ; DrvSYS_SetOscCtrl + 30
        0x0000046e:    2801        .(      CMP      r0,#1
        0x00000470:    d00f        ..      BEQ      0x492 ; DrvSYS_SetOscCtrl + 42
        0x00000472:    2802        .(      CMP      r0,#2
        0x00000474:    d016        ..      BEQ      0x4a4 ; DrvSYS_SetOscCtrl + 60
        0x00000476:    2803        .(      CMP      r0,#3
        0x00000478:    d11a        ..      BNE      0x4b0 ; DrvSYS_SetOscCtrl + 72
        0x0000047a:    6810        .h      LDR      r0,[r2,#0]
        0x0000047c:    2308        .#      MOVS     r3,#8
        0x0000047e:    4398        .C      BICS     r0,r0,r3
        0x00000480:    07c9        ..      LSLS     r1,r1,#31
        0x00000482:    0f09        ..      LSRS     r1,r1,#28
        0x00000484:    e00a        ..      B        0x49c ; DrvSYS_SetOscCtrl + 52
        0x00000486:    6810        .h      LDR      r0,[r2,#0]
        0x00000488:    07c9        ..      LSLS     r1,r1,#31
        0x0000048a:    0840        @.      LSRS     r0,r0,#1
        0x0000048c:    0040        @.      LSLS     r0,r0,#1
        0x0000048e:    0fc9        ..      LSRS     r1,r1,#31
        0x00000490:    e004        ..      B        0x49c ; DrvSYS_SetOscCtrl + 52
        0x00000492:    6810        .h      LDR      r0,[r2,#0]
        0x00000494:    2302        .#      MOVS     r3,#2
        0x00000496:    4398        .C      BICS     r0,r0,r3
        0x00000498:    07c9        ..      LSLS     r1,r1,#31
        0x0000049a:    0f89        ..      LSRS     r1,r1,#30
        0x0000049c:    4308        .C      ORRS     r0,r0,r1
        0x0000049e:    6010        .`      STR      r0,[r2,#0]
        0x000004a0:    2000        .       MOVS     r0,#0
        0x000004a2:    4770        pG      BX       lr
        0x000004a4:    6810        .h      LDR      r0,[r2,#0]
        0x000004a6:    2304        .#      MOVS     r3,#4
        0x000004a8:    4398        .C      BICS     r0,r0,r3
        0x000004aa:    07c9        ..      LSLS     r1,r1,#31
        0x000004ac:    0f49        I.      LSRS     r1,r1,#29
        0x000004ae:    e7f5        ..      B        0x49c ; DrvSYS_SetOscCtrl + 52
        0x000004b0:    4801        .H      LDR      r0,[pc,#4] ; [0x4b8] = 0xffff9603
        0x000004b2:    4770        pG      BX       lr
    $d
        0x000004b4:    50000200    ...P    DCD    1342177792
        0x000004b8:    ffff9603    ....    DCD    4294940163
    $t
    i.DrvSYS_SetPLLContent
    DrvSYS_SetPLLContent
        0x000004bc:    490d        .I      LDR      r1,[pc,#52] ; [0x4f4] = 0x50000200
        0x000004be:    6a0a        .j      LDR      r2,[r1,#0x20]
        0x000004c0:    05c3        ..      LSLS     r3,r0,#23
        0x000004c2:    0a52        R.      LSRS     r2,r2,#9
        0x000004c4:    0252        R.      LSLS     r2,r2,#9
        0x000004c6:    0ddb        ..      LSRS     r3,r3,#23
        0x000004c8:    431a        .C      ORRS     r2,r2,r3
        0x000004ca:    620a        .b      STR      r2,[r1,#0x20]
        0x000004cc:    6a0a        .j      LDR      r2,[r1,#0x20]
        0x000004ce:    231f        .#      MOVS     r3,#0x1f
        0x000004d0:    025b        [.      LSLS     r3,r3,#9
        0x000004d2:    439a        .C      BICS     r2,r2,r3
        0x000004d4:    0483        ..      LSLS     r3,r0,#18
        0x000004d6:    0edb        ..      LSRS     r3,r3,#27
        0x000004d8:    025b        [.      LSLS     r3,r3,#9
        0x000004da:    431a        .C      ORRS     r2,r2,r3
        0x000004dc:    620a        .b      STR      r2,[r1,#0x20]
        0x000004de:    6a0a        .j      LDR      r2,[r1,#0x20]
        0x000004e0:    2303        .#      MOVS     r3,#3
        0x000004e2:    039b        ..      LSLS     r3,r3,#14
        0x000004e4:    0400        ..      LSLS     r0,r0,#16
        0x000004e6:    0f80        ..      LSRS     r0,r0,#30
        0x000004e8:    439a        .C      BICS     r2,r2,r3
        0x000004ea:    0380        ..      LSLS     r0,r0,#14
        0x000004ec:    4302        .C      ORRS     r2,r2,r0
        0x000004ee:    620a        .b      STR      r2,[r1,#0x20]
        0x000004f0:    4770        pG      BX       lr
    $d
        0x000004f2:    0000        ..      DCW    0
        0x000004f4:    50000200    ...P    DCD    1342177792
    $t
    i.EINT0_IRQHandler
    EINT0_IRQHandler
        0x000004f8:    2001        .       MOVS     r0,#1
        0x000004fa:    4904        .I      LDR      r1,[pc,#16] ; [0x50c] = 0x50004040
        0x000004fc:    0380        ..      LSLS     r0,r0,#14
        0x000004fe:    6208        .b      STR      r0,[r1,#0x20]
        0x00000500:    4803        .H      LDR      r0,[pc,#12] ; [0x510] = 0x2000065c
        0x00000502:    6880        .h      LDR      r0,[r0,#8]
        0x00000504:    2800        .(      CMP      r0,#0
        0x00000506:    d000        ..      BEQ      0x50a ; EINT0_IRQHandler + 18
        0x00000508:    4700        .G      BX       r0
        0x0000050a:    4770        pG      BX       lr
    $d
        0x0000050c:    50004040    @@.P    DCD    1342193728
        0x00000510:    2000065c    \..     DCD    536872540
    $t
    i.EINT1_IRQHandler
    EINT1_IRQHandler
        0x00000514:    2001        .       MOVS     r0,#1
        0x00000516:    4904        .I      LDR      r1,[pc,#16] ; [0x528] = 0x50004040
        0x00000518:    03c0        ..      LSLS     r0,r0,#15
        0x0000051a:    6208        .b      STR      r0,[r1,#0x20]
        0x0000051c:    4803        .H      LDR      r0,[pc,#12] ; [0x52c] = 0x2000065c
        0x0000051e:    68c0        .h      LDR      r0,[r0,#0xc]
        0x00000520:    2800        .(      CMP      r0,#0
        0x00000522:    d000        ..      BEQ      0x526 ; EINT1_IRQHandler + 18
        0x00000524:    4700        .G      BX       r0
        0x00000526:    4770        pG      BX       lr
    $d
        0x00000528:    50004040    @@.P    DCD    1342193728
        0x0000052c:    2000065c    \..     DCD    536872540
    $t
    i.GPAB_IRQHandler
    GPAB_IRQHandler
        0x00000530:    b430        0.      PUSH     {r4,r5}
        0x00000532:    4a09        .J      LDR      r2,[pc,#36] ; [0x558] = 0x50004000
        0x00000534:    6a10        .j      LDR      r0,[r2,#0x20]
        0x00000536:    4b08        .K      LDR      r3,[pc,#32] ; [0x558] = 0x50004000
        0x00000538:    3340        @3      ADDS     r3,r3,#0x40
        0x0000053a:    6a19        .j      LDR      r1,[r3,#0x20]
        0x0000053c:    2403        .$      MOVS     r4,#3
        0x0000053e:    03a4        ..      LSLS     r4,r4,#14
        0x00000540:    43a1        .C      BICS     r1,r1,r4
        0x00000542:    6210        .b      STR      r0,[r2,#0x20]
        0x00000544:    6219        .b      STR      r1,[r3,#0x20]
        0x00000546:    4a05        .J      LDR      r2,[pc,#20] ; [0x55c] = 0x2000065c
        0x00000548:    6812        .h      LDR      r2,[r2,#0]
        0x0000054a:    2a00        .*      CMP      r2,#0
        0x0000054c:    d001        ..      BEQ      0x552 ; GPAB_IRQHandler + 34
        0x0000054e:    bc30        0.      POP      {r4,r5}
        0x00000550:    4710        .G      BX       r2
        0x00000552:    bc30        0.      POP      {r4,r5}
        0x00000554:    4770        pG      BX       lr
    $d
        0x00000556:    0000        ..      DCW    0
        0x00000558:    50004000    .@.P    DCD    1342193664
        0x0000055c:    2000065c    \..     DCD    536872540
    $t
    i.GPCDE_IRQHandler
    GPCDE_IRQHandler
        0x00000560:    b430        0.      PUSH     {r4,r5}
        0x00000562:    4c09        .L      LDR      r4,[pc,#36] ; [0x588] = 0x50004080
        0x00000564:    6a20         j      LDR      r0,[r4,#0x20]
        0x00000566:    4b08        .K      LDR      r3,[pc,#32] ; [0x588] = 0x50004080
        0x00000568:    3340        @3      ADDS     r3,r3,#0x40
        0x0000056a:    6a19        .j      LDR      r1,[r3,#0x20]
        0x0000056c:    4d06        .M      LDR      r5,[pc,#24] ; [0x588] = 0x50004080
        0x0000056e:    3580        .5      ADDS     r5,r5,#0x80
        0x00000570:    6a2a        *j      LDR      r2,[r5,#0x20]
        0x00000572:    6220         b      STR      r0,[r4,#0x20]
        0x00000574:    6219        .b      STR      r1,[r3,#0x20]
        0x00000576:    622a        *b      STR      r2,[r5,#0x20]
        0x00000578:    4b04        .K      LDR      r3,[pc,#16] ; [0x58c] = 0x2000065c
        0x0000057a:    685b        [h      LDR      r3,[r3,#4]
        0x0000057c:    2b00        .+      CMP      r3,#0
        0x0000057e:    d001        ..      BEQ      0x584 ; GPCDE_IRQHandler + 36
        0x00000580:    bc30        0.      POP      {r4,r5}
        0x00000582:    4718        .G      BX       r3
        0x00000584:    bc30        0.      POP      {r4,r5}
        0x00000586:    4770        pG      BX       lr
    $d
        0x00000588:    50004080    .@.P    DCD    1342193792
        0x0000058c:    2000065c    \..     DCD    536872540
    $t
    i.InitTIMER0
    InitTIMER0
        0x00000590:    4813        .H      LDR      r0,[pc,#76] ; [0x5e0] = 0x50000200
        0x00000592:    6941        Ai      LDR      r1,[r0,#0x14]
        0x00000594:    2207        ."      MOVS     r2,#7
        0x00000596:    0212        ..      LSLS     r2,r2,#8
        0x00000598:    4391        .C      BICS     r1,r1,r2
        0x0000059a:    6141        Aa      STR      r1,[r0,#0x14]
        0x0000059c:    6881        .h      LDR      r1,[r0,#8]
        0x0000059e:    2204        ."      MOVS     r2,#4
        0x000005a0:    4311        .C      ORRS     r1,r1,r2
        0x000005a2:    6081        .`      STR      r1,[r0,#8]
        0x000005a4:    480f        .H      LDR      r0,[pc,#60] ; [0x5e4] = 0x40010000
        0x000005a6:    6801        .h      LDR      r1,[r0,#0]
        0x000005a8:    2203        ."      MOVS     r2,#3
        0x000005aa:    06d2        ..      LSLS     r2,r2,#27
        0x000005ac:    4391        .C      BICS     r1,r1,r2
        0x000005ae:    02c2        ..      LSLS     r2,r0,#11
        0x000005b0:    1889        ..      ADDS     r1,r1,r2
        0x000005b2:    6001        .`      STR      r1,[r0,#0]
        0x000005b4:    6801        .h      LDR      r1,[r0,#0]
        0x000005b6:    22ff        ."      MOVS     r2,#0xff
        0x000005b8:    4311        .C      ORRS     r1,r1,r2
        0x000005ba:    6001        .`      STR      r1,[r0,#0]
        0x000005bc:    490a        .I      LDR      r1,[pc,#40] ; [0x5e8] = 0xb71b
        0x000005be:    6041        A`      STR      r1,[r0,#4]
        0x000005c0:    6801        .h      LDR      r1,[r0,#0]
        0x000005c2:    0342        B.      LSLS     r2,r0,#13
        0x000005c4:    4311        .C      ORRS     r1,r1,r2
        0x000005c6:    6001        .`      STR      r1,[r0,#0]
        0x000005c8:    6881        .h      LDR      r1,[r0,#8]
        0x000005ca:    2201        ."      MOVS     r2,#1
        0x000005cc:    4311        .C      ORRS     r1,r1,r2
        0x000005ce:    6081        .`      STR      r1,[r0,#8]
        0x000005d0:    4a06        .J      LDR      r2,[pc,#24] ; [0x5ec] = 0xe000e100
        0x000005d2:    1581        ..      ASRS     r1,r0,#22
        0x000005d4:    6011        .`      STR      r1,[r2,#0]
        0x000005d6:    6801        .h      LDR      r1,[r0,#0]
        0x000005d8:    0282        ..      LSLS     r2,r0,#10
        0x000005da:    4311        .C      ORRS     r1,r1,r2
        0x000005dc:    6001        .`      STR      r1,[r0,#0]
        0x000005de:    4770        pG      BX       lr
    $d
        0x000005e0:    50000200    ...P    DCD    1342177792
        0x000005e4:    40010000    ...@    DCD    1073807360
        0x000005e8:    0000b71b    ....    DCD    46875
        0x000005ec:    e000e100    ....    DCD    3758153984
    $t
    i.Init_GPIO_SR04
    Init_GPIO_SR04
        0x000005f0:    4807        .H      LDR      r0,[pc,#28] ; [0x610] = 0x50004040
        0x000005f2:    6801        .h      LDR      r1,[r0,#0]
        0x000005f4:    2230        0"      MOVS     r2,#0x30
        0x000005f6:    4391        .C      BICS     r1,r1,r2
        0x000005f8:    6001        .`      STR      r1,[r0,#0]
        0x000005fa:    6801        .h      LDR      r1,[r0,#0]
        0x000005fc:    0112        ..      LSLS     r2,r2,#4
        0x000005fe:    4391        .C      BICS     r1,r1,r2
        0x00000600:    31ff        .1      ADDS     r1,r1,#0xff
        0x00000602:    3101        .1      ADDS     r1,#1
        0x00000604:    6001        .`      STR      r1,[r0,#0]
        0x00000606:    4903        .I      LDR      r1,[pc,#12] ; [0x614] = 0x50004240
        0x00000608:    2000        .       MOVS     r0,#0
        0x0000060a:    6108        .a      STR      r0,[r1,#0x10]
        0x0000060c:    4770        pG      BX       lr
    $d
        0x0000060e:    0000        ..      DCW    0
        0x00000610:    50004040    @@.P    DCD    1342193728
        0x00000614:    50004240    @B.P    DCD    1342194240
    $t
    i.Init_TMR2
    Init_TMR2
        0x00000618:    2005        .       MOVS     r0,#5
        0x0000061a:    0700        ..      LSLS     r0,r0,#28
        0x0000061c:    6b41        Ak      LDR      r1,[r0,#0x34]
        0x0000061e:    2204        ."      MOVS     r2,#4
        0x00000620:    4311        .C      ORRS     r1,r1,r2
        0x00000622:    6341        Ac      STR      r1,[r0,#0x34]
        0x00000624:    4a1c        .J      LDR      r2,[pc,#112] ; [0x698] = 0x50000040
        0x00000626:    6911        .i      LDR      r1,[r2,#0x10]
        0x00000628:    0513        ..      LSLS     r3,r2,#20
        0x0000062a:    4319        .C      ORRS     r1,r1,r3
        0x0000062c:    6111        .a      STR      r1,[r2,#0x10]
        0x0000062e:    68c2        .h      LDR      r2,[r0,#0xc]
        0x00000630:    2110        .!      MOVS     r1,#0x10
        0x00000632:    430a        .C      ORRS     r2,r2,r1
        0x00000634:    60c2        .`      STR      r2,[r0,#0xc]
        0x00000636:    68c2        .h      LDR      r2,[r0,#0xc]
        0x00000638:    438a        .C      BICS     r2,r2,r1
        0x0000063a:    60c2        .`      STR      r2,[r0,#0xc]
        0x0000063c:    4817        .H      LDR      r0,[pc,#92] ; [0x69c] = 0x50000200
        0x0000063e:    6942        Bi      LDR      r2,[r0,#0x14]
        0x00000640:    2307        .#      MOVS     r3,#7
        0x00000642:    041b        ..      LSLS     r3,r3,#16
        0x00000644:    439a        .C      BICS     r2,r2,r3
        0x00000646:    6142        Ba      STR      r2,[r0,#0x14]
        0x00000648:    6882        .h      LDR      r2,[r0,#8]
        0x0000064a:    430a        .C      ORRS     r2,r2,r1
        0x0000064c:    6082        .`      STR      r2,[r0,#8]
        0x0000064e:    4815        .H      LDR      r0,[pc,#84] ; [0x6a4] = 0x40110000
        0x00000650:    4a13        .J      LDR      r2,[pc,#76] ; [0x6a0] = 0xffffff
        0x00000652:    6042        B`      STR      r2,[r0,#4]
        0x00000654:    6802        .h      LDR      r2,[r0,#0]
        0x00000656:    0a12        ..      LSRS     r2,r2,#8
        0x00000658:    0212        ..      LSLS     r2,r2,#8
        0x0000065a:    320b        .2      ADDS     r2,r2,#0xb
        0x0000065c:    6002        .`      STR      r2,[r0,#0]
        0x0000065e:    6802        .h      LDR      r2,[r0,#0]
        0x00000660:    2303        .#      MOVS     r3,#3
        0x00000662:    06db        ..      LSLS     r3,r3,#27
        0x00000664:    439a        .C      BICS     r2,r2,r3
        0x00000666:    6002        .`      STR      r2,[r0,#0]
        0x00000668:    6942        Bi      LDR      r2,[r0,#0x14]
        0x0000066a:    2308        .#      MOVS     r3,#8
        0x0000066c:    431a        .C      ORRS     r2,r2,r3
        0x0000066e:    6142        Ba      STR      r2,[r0,#0x14]
        0x00000670:    6942        Bi      LDR      r2,[r0,#0x14]
        0x00000672:    438a        .C      BICS     r2,r2,r1
        0x00000674:    6142        Ba      STR      r2,[r0,#0x14]
        0x00000676:    6941        Ai      LDR      r1,[r0,#0x14]
        0x00000678:    2206        ."      MOVS     r2,#6
        0x0000067a:    4391        .C      BICS     r1,r1,r2
        0x0000067c:    1d09        ..      ADDS     r1,r1,#4
        0x0000067e:    6141        Aa      STR      r1,[r0,#0x14]
        0x00000680:    6941        Ai      LDR      r1,[r0,#0x14]
        0x00000682:    2220         "      MOVS     r2,#0x20
        0x00000684:    4311        .C      ORRS     r1,r1,r2
        0x00000686:    6141        Aa      STR      r1,[r0,#0x14]
        0x00000688:    6981        .i      LDR      r1,[r0,#0x18]
        0x0000068a:    2201        ."      MOVS     r2,#1
        0x0000068c:    4311        .C      ORRS     r1,r1,r2
        0x0000068e:    6181        .a      STR      r1,[r0,#0x18]
        0x00000690:    4905        .I      LDR      r1,[pc,#20] ; [0x6a8] = 0xe000e100
        0x00000692:    0290        ..      LSLS     r0,r2,#10
        0x00000694:    6008        .`      STR      r0,[r1,#0]
        0x00000696:    4770        pG      BX       lr
    $d
        0x00000698:    50000040    @..P    DCD    1342177344
        0x0000069c:    50000200    ...P    DCD    1342177792
        0x000006a0:    00ffffff    ....    DCD    16777215
        0x000006a4:    40110000    ...@    DCD    1074855936
        0x000006a8:    e000e100    ....    DCD    3758153984
    $t
    i.Initial_panel
    Initial_panel
        0x000006ac:    4a3d        =J      LDR      r2,[pc,#244] ; [0x7a4] = 0x50000200
        0x000006ae:    6890        .h      LDR      r0,[r2,#8]
        0x000006b0:    0191        ..      LSLS     r1,r2,#6
        0x000006b2:    4308        .C      ORRS     r0,r0,r1
        0x000006b4:    6090        .`      STR      r0,[r2,#8]
        0x000006b6:    2005        .       MOVS     r0,#5
        0x000006b8:    0700        ..      LSLS     r0,r0,#28
        0x000006ba:    68c2        .h      LDR      r2,[r0,#0xc]
        0x000006bc:    430a        .C      ORRS     r2,r2,r1
        0x000006be:    60c2        .`      STR      r2,[r0,#0xc]
        0x000006c0:    68c2        .h      LDR      r2,[r0,#0xc]
        0x000006c2:    438a        .C      BICS     r2,r2,r1
        0x000006c4:    60c2        .`      STR      r2,[r0,#0xc]
        0x000006c6:    6bc1        .k      LDR      r1,[r0,#0x3c]
        0x000006c8:    22ff        ."      MOVS     r2,#0xff
        0x000006ca:    3201        .2      ADDS     r2,#1
        0x000006cc:    4311        .C      ORRS     r1,r1,r2
        0x000006ce:    63c1        .c      STR      r1,[r0,#0x3c]
        0x000006d0:    6bc1        .k      LDR      r1,[r0,#0x3c]
        0x000006d2:    0052        R.      LSLS     r2,r2,#1
        0x000006d4:    4311        .C      ORRS     r1,r1,r2
        0x000006d6:    63c1        .c      STR      r1,[r0,#0x3c]
        0x000006d8:    6bc2        .k      LDR      r2,[r0,#0x3c]
        0x000006da:    2101        .!      MOVS     r1,#1
        0x000006dc:    02c9        ..      LSLS     r1,r1,#11
        0x000006de:    430a        .C      ORRS     r2,r2,r1
        0x000006e0:    63c2        .c      STR      r2,[r0,#0x3c]
        0x000006e2:    4831        1H      LDR      r0,[pc,#196] ; [0x7a8] = 0x2000001c
        0x000006e4:    68c0        .h      LDR      r0,[r0,#0xc]
        0x000006e6:    6802        .h      LDR      r2,[r0,#0]
        0x000006e8:    430a        .C      ORRS     r2,r2,r1
        0x000006ea:    6002        .`      STR      r2,[r0,#0]
        0x000006ec:    6801        .h      LDR      r1,[r0,#0]
        0x000006ee:    22f8        ."      MOVS     r2,#0xf8
        0x000006f0:    4391        .C      BICS     r1,r1,r2
        0x000006f2:    3148        H1      ADDS     r1,r1,#0x48
        0x000006f4:    6001        .`      STR      r1,[r0,#0]
        0x000006f6:    6801        .h      LDR      r1,[r0,#0]
        0x000006f8:    2204        ."      MOVS     r2,#4
        0x000006fa:    4311        .C      ORRS     r1,r1,r2
        0x000006fc:    6001        .`      STR      r1,[r0,#0]
        0x000006fe:    6841        Ah      LDR      r1,[r0,#4]
        0x00000700:    0c09        ..      LSRS     r1,r1,#16
        0x00000702:    0409        ..      LSLS     r1,r1,#16
        0x00000704:    1cc9        ..      ADDS     r1,r1,#3
        0x00000706:    6041        A`      STR      r1,[r0,#4]
        0x00000708:    6881        .h      LDR      r1,[r0,#8]
        0x0000070a:    0889        ..      LSRS     r1,r1,#2
        0x0000070c:    0089        ..      LSLS     r1,r1,#2
        0x0000070e:    1c49        I.      ADDS     r1,r1,#1
        0x00000710:    6081        .`      STR      r1,[r0,#8]
        0x00000712:    21eb        .!      MOVS     r1,#0xeb
        0x00000714:    6201        .b      STR      r1,[r0,#0x20]
        0x00000716:    6801        .h      LDR      r1,[r0,#0]
        0x00000718:    2201        ."      MOVS     r2,#1
        0x0000071a:    4311        .C      ORRS     r1,r1,r2
        0x0000071c:    6001        .`      STR      r1,[r0,#0]
        0x0000071e:    6801        .h      LDR      r1,[r0,#0]
        0x00000720:    07c9        ..      LSLS     r1,r1,#31
        0x00000722:    d1fc        ..      BNE      0x71e ; Initial_panel + 114
        0x00000724:    6881        .h      LDR      r1,[r0,#8]
        0x00000726:    0889        ..      LSRS     r1,r1,#2
        0x00000728:    0089        ..      LSLS     r1,r1,#2
        0x0000072a:    6081        .`      STR      r1,[r0,#8]
        0x0000072c:    6881        .h      LDR      r1,[r0,#8]
        0x0000072e:    0889        ..      LSRS     r1,r1,#2
        0x00000730:    0089        ..      LSLS     r1,r1,#2
        0x00000732:    1c49        I.      ADDS     r1,r1,#1
        0x00000734:    6081        .`      STR      r1,[r0,#8]
        0x00000736:    2181        .!      MOVS     r1,#0x81
        0x00000738:    6201        .b      STR      r1,[r0,#0x20]
        0x0000073a:    6801        .h      LDR      r1,[r0,#0]
        0x0000073c:    4311        .C      ORRS     r1,r1,r2
        0x0000073e:    6001        .`      STR      r1,[r0,#0]
        0x00000740:    6801        .h      LDR      r1,[r0,#0]
        0x00000742:    07c9        ..      LSLS     r1,r1,#31
        0x00000744:    d1fc        ..      BNE      0x740 ; Initial_panel + 148
        0x00000746:    21a0        .!      MOVS     r1,#0xa0
        0x00000748:    6201        .b      STR      r1,[r0,#0x20]
        0x0000074a:    6801        .h      LDR      r1,[r0,#0]
        0x0000074c:    4311        .C      ORRS     r1,r1,r2
        0x0000074e:    6001        .`      STR      r1,[r0,#0]
        0x00000750:    6801        .h      LDR      r1,[r0,#0]
        0x00000752:    07c9        ..      LSLS     r1,r1,#31
        0x00000754:    d1fc        ..      BNE      0x750 ; Initial_panel + 164
        0x00000756:    6881        .h      LDR      r1,[r0,#8]
        0x00000758:    0889        ..      LSRS     r1,r1,#2
        0x0000075a:    0089        ..      LSLS     r1,r1,#2
        0x0000075c:    6081        .`      STR      r1,[r0,#8]
        0x0000075e:    6881        .h      LDR      r1,[r0,#8]
        0x00000760:    0889        ..      LSRS     r1,r1,#2
        0x00000762:    0089        ..      LSLS     r1,r1,#2
        0x00000764:    1c49        I.      ADDS     r1,r1,#1
        0x00000766:    6081        .`      STR      r1,[r0,#8]
        0x00000768:    21c0        .!      MOVS     r1,#0xc0
        0x0000076a:    6201        .b      STR      r1,[r0,#0x20]
        0x0000076c:    6801        .h      LDR      r1,[r0,#0]
        0x0000076e:    4311        .C      ORRS     r1,r1,r2
        0x00000770:    6001        .`      STR      r1,[r0,#0]
        0x00000772:    6801        .h      LDR      r1,[r0,#0]
        0x00000774:    07c9        ..      LSLS     r1,r1,#31
        0x00000776:    d1fc        ..      BNE      0x772 ; Initial_panel + 198
        0x00000778:    6881        .h      LDR      r1,[r0,#8]
        0x0000077a:    0889        ..      LSRS     r1,r1,#2
        0x0000077c:    0089        ..      LSLS     r1,r1,#2
        0x0000077e:    6081        .`      STR      r1,[r0,#8]
        0x00000780:    6881        .h      LDR      r1,[r0,#8]
        0x00000782:    0889        ..      LSRS     r1,r1,#2
        0x00000784:    0089        ..      LSLS     r1,r1,#2
        0x00000786:    1c49        I.      ADDS     r1,r1,#1
        0x00000788:    6081        .`      STR      r1,[r0,#8]
        0x0000078a:    21af        .!      MOVS     r1,#0xaf
        0x0000078c:    6201        .b      STR      r1,[r0,#0x20]
        0x0000078e:    6801        .h      LDR      r1,[r0,#0]
        0x00000790:    4311        .C      ORRS     r1,r1,r2
        0x00000792:    6001        .`      STR      r1,[r0,#0]
        0x00000794:    6801        .h      LDR      r1,[r0,#0]
        0x00000796:    07c9        ..      LSLS     r1,r1,#31
        0x00000798:    d1fc        ..      BNE      0x794 ; Initial_panel + 232
        0x0000079a:    6881        .h      LDR      r1,[r0,#8]
        0x0000079c:    0889        ..      LSRS     r1,r1,#2
        0x0000079e:    0089        ..      LSLS     r1,r1,#2
        0x000007a0:    6081        .`      STR      r1,[r0,#8]
        0x000007a2:    4770        pG      BX       lr
    $d
        0x000007a4:    50000200    ...P    DCD    1342177792
        0x000007a8:    2000001c    ...     DCD    536870940
    $t
    i.PWRWU_IRQHandler
    PWRWU_IRQHandler
        0x000007ac:    4805        .H      LDR      r0,[pc,#20] ; [0x7c4] = 0x50000200
        0x000007ae:    6801        .h      LDR      r1,[r0,#0]
        0x000007b0:    2240        @"      MOVS     r2,#0x40
        0x000007b2:    4311        .C      ORRS     r1,r1,r2
        0x000007b4:    6001        .`      STR      r1,[r0,#0]
        0x000007b6:    4804        .H      LDR      r0,[pc,#16] ; [0x7c8] = 0x20000654
        0x000007b8:    6840        @h      LDR      r0,[r0,#4]
        0x000007ba:    2800        .(      CMP      r0,#0
        0x000007bc:    d000        ..      BEQ      0x7c0 ; PWRWU_IRQHandler + 20
        0x000007be:    4700        .G      BX       r0
        0x000007c0:    4770        pG      BX       lr
    $d
        0x000007c2:    0000        ..      DCW    0
        0x000007c4:    50000200    ...P    DCD    1342177792
        0x000007c8:    20000654    T..     DCD    536872532
    $t
    i.SR04_Trigger
    SR04_Trigger
        0x000007cc:    b510        ..      PUSH     {r4,lr}
        0x000007ce:    4c09        .L      LDR      r4,[pc,#36] ; [0x7f4] = 0x50004240
        0x000007d0:    2001        .       MOVS     r0,#1
        0x000007d2:    6120         a      STR      r0,[r4,#0x10]
        0x000007d4:    200a        .       MOVS     r0,#0xa
        0x000007d6:    f7fffd5d    ..].    BL       DrvSYS_Delay ; 0x294
        0x000007da:    2000        .       MOVS     r0,#0
        0x000007dc:    6120         a      STR      r0,[r4,#0x10]
        0x000007de:    2201        ."      MOVS     r2,#1
        0x000007e0:    210b        .!      MOVS     r1,#0xb
        0x000007e2:    4610        .F      MOV      r0,r2
        0x000007e4:    f7fffd28    ..(.    BL       DrvGPIO_Open ; 0x238
        0x000007e8:    4803        .H      LDR      r0,[pc,#12] ; [0x7f8] = 0x40110000
        0x000007ea:    6941        Ai      LDR      r1,[r0,#0x14]
        0x000007ec:    2210        ."      MOVS     r2,#0x10
        0x000007ee:    4311        .C      ORRS     r1,r1,r2
        0x000007f0:    6141        Aa      STR      r1,[r0,#0x14]
        0x000007f2:    bd10        ..      POP      {r4,pc}
    $d
        0x000007f4:    50004240    @B.P    DCD    1342194240
        0x000007f8:    40110000    ...@    DCD    1074855936
    $t
    i.SetPACA
    SetPACA
        0x000007fc:    4a1c        .J      LDR      r2,[pc,#112] ; [0x870] = 0x2000001c
        0x000007fe:    68d2        .h      LDR      r2,[r2,#0xc]
        0x00000800:    6893        .h      LDR      r3,[r2,#8]
        0x00000802:    089b        ..      LSRS     r3,r3,#2
        0x00000804:    009b        ..      LSLS     r3,r3,#2
        0x00000806:    1c5b        [.      ADDS     r3,r3,#1
        0x00000808:    6093        .`      STR      r3,[r2,#8]
        0x0000080a:    23b0        .#      MOVS     r3,#0xb0
        0x0000080c:    4318        .C      ORRS     r0,r0,r3
        0x0000080e:    6210        .b      STR      r0,[r2,#0x20]
        0x00000810:    6810        .h      LDR      r0,[r2,#0]
        0x00000812:    2301        .#      MOVS     r3,#1
        0x00000814:    4318        .C      ORRS     r0,r0,r3
        0x00000816:    6010        .`      STR      r0,[r2,#0]
        0x00000818:    6810        .h      LDR      r0,[r2,#0]
        0x0000081a:    07c0        ..      LSLS     r0,r0,#31
        0x0000081c:    d1fc        ..      BNE      0x818 ; SetPACA + 28
        0x0000081e:    6890        .h      LDR      r0,[r2,#8]
        0x00000820:    0880        ..      LSRS     r0,r0,#2
        0x00000822:    0080        ..      LSLS     r0,r0,#2
        0x00000824:    6090        .`      STR      r0,[r2,#8]
        0x00000826:    6890        .h      LDR      r0,[r2,#8]
        0x00000828:    0880        ..      LSRS     r0,r0,#2
        0x0000082a:    0080        ..      LSLS     r0,r0,#2
        0x0000082c:    1c40        @.      ADDS     r0,r0,#1
        0x0000082e:    6090        .`      STR      r0,[r2,#8]
        0x00000830:    0908        ..      LSRS     r0,r1,#4
        0x00000832:    3010        .0      ADDS     r0,r0,#0x10
        0x00000834:    6210        .b      STR      r0,[r2,#0x20]
        0x00000836:    6810        .h      LDR      r0,[r2,#0]
        0x00000838:    4318        .C      ORRS     r0,r0,r3
        0x0000083a:    6010        .`      STR      r0,[r2,#0]
        0x0000083c:    6810        .h      LDR      r0,[r2,#0]
        0x0000083e:    07c0        ..      LSLS     r0,r0,#31
        0x00000840:    d1fc        ..      BNE      0x83c ; SetPACA + 64
        0x00000842:    6890        .h      LDR      r0,[r2,#8]
        0x00000844:    0880        ..      LSRS     r0,r0,#2
        0x00000846:    0080        ..      LSLS     r0,r0,#2
        0x00000848:    6090        .`      STR      r0,[r2,#8]
        0x0000084a:    6890        .h      LDR      r0,[r2,#8]
        0x0000084c:    0880        ..      LSRS     r0,r0,#2
        0x0000084e:    0080        ..      LSLS     r0,r0,#2
        0x00000850:    1c40        @.      ADDS     r0,r0,#1
        0x00000852:    6090        .`      STR      r0,[r2,#8]
        0x00000854:    0708        ..      LSLS     r0,r1,#28
        0x00000856:    0f00        ..      LSRS     r0,r0,#28
        0x00000858:    6210        .b      STR      r0,[r2,#0x20]
        0x0000085a:    6810        .h      LDR      r0,[r2,#0]
        0x0000085c:    4318        .C      ORRS     r0,r0,r3
        0x0000085e:    6010        .`      STR      r0,[r2,#0]
        0x00000860:    6810        .h      LDR      r0,[r2,#0]
        0x00000862:    07c0        ..      LSLS     r0,r0,#31
        0x00000864:    d1fc        ..      BNE      0x860 ; SetPACA + 100
        0x00000866:    6890        .h      LDR      r0,[r2,#8]
        0x00000868:    0880        ..      LSRS     r0,r0,#2
        0x0000086a:    0080        ..      LSLS     r0,r0,#2
        0x0000086c:    6090        .`      STR      r0,[r2,#8]
        0x0000086e:    4770        pG      BX       lr
    $d
        0x00000870:    2000001c    ...     DCD    536870940
    $t
    i.Show_Word
    Show_Word
        0x00000874:    b5f0        ..      PUSH     {r4-r7,lr}
        0x00000876:    0115        ..      LSLS     r5,r2,#4
        0x00000878:    3dff        .=      SUBS     r5,r5,#0xff
        0x0000087a:    3dff        .=      SUBS     r5,r5,#0xff
        0x0000087c:    3d02        .=      SUBS     r5,#2
        0x0000087e:    00c9        ..      LSLS     r1,r1,#3
        0x00000880:    2281        ."      MOVS     r2,#0x81
        0x00000882:    2400        .$      MOVS     r4,#0
        0x00000884:    1a56        V.      SUBS     r6,r2,r1
        0x00000886:    0047        G.      LSLS     r7,r0,#1
        0x00000888:    1b30        0.      SUBS     r0,r6,r4
        0x0000088a:    b2c1        ..      UXTB     r1,r0
        0x0000088c:    b2f8        ..      UXTB     r0,r7
        0x0000088e:    f7ffffb5    ....    BL       SetPACA ; 0x7fc
        0x00000892:    4b0c        .K      LDR      r3,[pc,#48] ; [0x8c4] = 0x2000002c
        0x00000894:    1928        (.      ADDS     r0,r5,r4
        0x00000896:    5c18        .\      LDRB     r0,[r3,r0]
        0x00000898:    f000f892    ....    BL       WriteData ; 0x9c0
        0x0000089c:    1c64        d.      ADDS     r4,r4,#1
        0x0000089e:    2c08        .,      CMP      r4,#8
        0x000008a0:    dbf2        ..      BLT      0x888 ; Show_Word + 20
        0x000008a2:    2400        .$      MOVS     r4,#0
        0x000008a4:    1c7f        ..      ADDS     r7,r7,#1
        0x000008a6:    1b30        0.      SUBS     r0,r6,r4
        0x000008a8:    b2c1        ..      UXTB     r1,r0
        0x000008aa:    b2f8        ..      UXTB     r0,r7
        0x000008ac:    f7ffffa6    ....    BL       SetPACA ; 0x7fc
        0x000008b0:    4904        .I      LDR      r1,[pc,#16] ; [0x8c4] = 0x2000002c
        0x000008b2:    1928        (.      ADDS     r0,r5,r4
        0x000008b4:    1840        @.      ADDS     r0,r0,r1
        0x000008b6:    7a00        .z      LDRB     r0,[r0,#8]
        0x000008b8:    f000f882    ....    BL       WriteData ; 0x9c0
        0x000008bc:    1c64        d.      ADDS     r4,r4,#1
        0x000008be:    2c08        .,      CMP      r4,#8
        0x000008c0:    dbf1        ..      BLT      0x8a6 ; Show_Word + 50
        0x000008c2:    bdf0        ..      POP      {r4-r7,pc}
    $d
        0x000008c4:    2000002c    ,..     DCD    536870956
    $t
    i.SystemCoreClockUpdate
    SystemCoreClockUpdate
        0x000008c8:    b570        p.      PUSH     {r4-r6,lr}
        0x000008ca:    4d1b        .M      LDR      r5,[pc,#108] ; [0x938] = 0x50000200
        0x000008cc:    6928        (i      LDR      r0,[r5,#0x10]
        0x000008ce:    0740        @.      LSLS     r0,r0,#29
        0x000008d0:    0f40        @.      LSRS     r0,r0,#29
        0x000008d2:    2805        .(      CMP      r0,#5
        0x000008d4:    d901        ..      BLS      0x8da ; SystemCoreClockUpdate + 18
        0x000008d6:    2004        .       MOVS     r0,#4
        0x000008d8:    e001        ..      B        0x8de ; SystemCoreClockUpdate + 22
        0x000008da:    2802        .(      CMP      r0,#2
        0x000008dc:    d003        ..      BEQ      0x8e6 ; SystemCoreClockUpdate + 30
        0x000008de:    4917        .I      LDR      r1,[pc,#92] ; [0x93c] = 0x20000008
        0x000008e0:    0080        ..      LSLS     r0,r0,#2
        0x000008e2:    5808        .X      LDR      r0,[r1,r0]
        0x000008e4:    e017        ..      B        0x916 ; SystemCoreClockUpdate + 78
        0x000008e6:    6a28        (j      LDR      r0,[r5,#0x20]
        0x000008e8:    0400        ..      LSLS     r0,r0,#16
        0x000008ea:    0f84        ..      LSRS     r4,r0,#30
        0x000008ec:    2c01        .,      CMP      r4,#1
        0x000008ee:    d900        ..      BLS      0x8f2 ; SystemCoreClockUpdate + 42
        0x000008f0:    1e64        d.      SUBS     r4,r4,#1
        0x000008f2:    6a28        (j      LDR      r0,[r5,#0x20]
        0x000008f4:    0300        ..      LSLS     r0,r0,#12
        0x000008f6:    d501        ..      BPL      0x8fc ; SystemCoreClockUpdate + 52
        0x000008f8:    4811        .H      LDR      r0,[pc,#68] ; [0x940] = 0x1518000
        0x000008fa:    e000        ..      B        0x8fe ; SystemCoreClockUpdate + 54
        0x000008fc:    4811        .H      LDR      r0,[pc,#68] ; [0x944] = 0xb71b00
        0x000008fe:    6a29        )j      LDR      r1,[r5,#0x20]
        0x00000900:    05c9        ..      LSLS     r1,r1,#23
        0x00000902:    0dc9        ..      LSRS     r1,r1,#23
        0x00000904:    1c89        ..      ADDS     r1,r1,#2
        0x00000906:    4348        HC      MULS     r0,r1,r0
        0x00000908:    6a29        )j      LDR      r1,[r5,#0x20]
        0x0000090a:    0489        ..      LSLS     r1,r1,#18
        0x0000090c:    0ec9        ..      LSRS     r1,r1,#27
        0x0000090e:    1c89        ..      ADDS     r1,r1,#2
        0x00000910:    f7fffc06    ....    BL       __aeabi_uidiv ; 0x120
        0x00000914:    40e0        .@      LSRS     r0,r0,r4
        0x00000916:    69a9        .i      LDR      r1,[r5,#0x18]
        0x00000918:    0709        ..      LSLS     r1,r1,#28
        0x0000091a:    0f09        ..      LSRS     r1,r1,#28
        0x0000091c:    1c49        I.      ADDS     r1,r1,#1
        0x0000091e:    f7fffbff    ....    BL       __aeabi_uidiv ; 0x120
        0x00000922:    4c06        .L      LDR      r4,[pc,#24] ; [0x93c] = 0x20000008
        0x00000924:    4908        .I      LDR      r1,[pc,#32] ; [0x948] = 0xf4240
        0x00000926:    3c08        .<      SUBS     r4,r4,#8
        0x00000928:    104a        J.      ASRS     r2,r1,#1
        0x0000092a:    6020         `      STR      r0,[r4,#0]
        0x0000092c:    1880        ..      ADDS     r0,r0,r2
        0x0000092e:    f7fffbf7    ....    BL       __aeabi_uidiv ; 0x120
        0x00000932:    6060        ``      STR      r0,[r4,#4]
        0x00000934:    bd70        p.      POP      {r4-r6,pc}
    $d
        0x00000936:    0000        ..      DCW    0
        0x00000938:    50000200    ...P    DCD    1342177792
        0x0000093c:    20000008    ...     DCD    536870920
        0x00000940:    01518000    ..Q.    DCD    22118400
        0x00000944:    00b71b00    ....    DCD    12000000
        0x00000948:    000f4240    @B..    DCD    1000000
    $t
    i.SystemInit
    SystemInit
        0x0000094c:    4770        pG      BX       lr
        0x0000094e:    0000        ..      MOVS     r0,r0
    i.TMR0_IRQHandler
    TMR0_IRQHandler
        0x00000950:    b510        ..      PUSH     {r4,lr}
        0x00000952:    4809        .H      LDR      r0,[pc,#36] ; [0x978] = 0x2000061c
        0x00000954:    a109        ..      ADR      r1,{pc}+0x28 ; 0x97c
        0x00000956:    6882        .h      LDR      r2,[r0,#8]
        0x00000958:    1c52        R.      ADDS     r2,r2,#1
        0x0000095a:    6082        .`      STR      r2,[r0,#8]
        0x0000095c:    302e        .0      ADDS     r0,r0,#0x2e
        0x0000095e:    f000f847    ..G.    BL       __0sprintf$6 ; 0x9f0
        0x00000962:    4905        .I      LDR      r1,[pc,#20] ; [0x978] = 0x2000061c
        0x00000964:    2003        .       MOVS     r0,#3
        0x00000966:    3126        &1      ADDS     r1,r1,#0x26
        0x00000968:    f000fa8c    ....    BL       print_lcd ; 0xe84
        0x0000096c:    4806        .H      LDR      r0,[pc,#24] ; [0x988] = 0x40010000
        0x0000096e:    6881        .h      LDR      r1,[r0,#8]
        0x00000970:    2201        ."      MOVS     r2,#1
        0x00000972:    4311        .C      ORRS     r1,r1,r2
        0x00000974:    6081        .`      STR      r1,[r0,#8]
        0x00000976:    bd10        ..      POP      {r4,pc}
    $d
        0x00000978:    2000061c    ...     DCD    536872476
        0x0000097c:    20643225    %2d     DCD    543437349
        0x00000980:    20636573    sec     DCD    543384947
        0x00000984:    00000020     ...    DCD    32
        0x00000988:    40010000    ...@    DCD    1073807360
    $t
    i.TMR2_IRQHandler
    TMR2_IRQHandler
        0x0000098c:    480a        .H      LDR      r0,[pc,#40] ; [0x9b8] = 0x40110000
        0x0000098e:    6941        Ai      LDR      r1,[r0,#0x14]
        0x00000990:    2210        ."      MOVS     r2,#0x10
        0x00000992:    4391        .C      BICS     r1,r1,r2
        0x00000994:    6141        Aa      STR      r1,[r0,#0x14]
        0x00000996:    6801        .h      LDR      r1,[r0,#0]
        0x00000998:    0382        ..      LSLS     r2,r0,#14
        0x0000099a:    4311        .C      ORRS     r1,r1,r2
        0x0000099c:    6001        .`      STR      r1,[r0,#0]
        0x0000099e:    6981        .i      LDR      r1,[r0,#0x18]
        0x000009a0:    07c9        ..      LSLS     r1,r1,#31
        0x000009a2:    d007        ..      BEQ      0x9b4 ; TMR2_IRQHandler + 40
        0x000009a4:    6982        .i      LDR      r2,[r0,#0x18]
        0x000009a6:    2101        .!      MOVS     r1,#1
        0x000009a8:    430a        .C      ORRS     r2,r2,r1
        0x000009aa:    6182        .a      STR      r2,[r0,#0x18]
        0x000009ac:    6902        .i      LDR      r2,[r0,#0x10]
        0x000009ae:    4803        .H      LDR      r0,[pc,#12] ; [0x9bc] = 0x2000061c
        0x000009b0:    6002        .`      STR      r2,[r0,#0]
        0x000009b2:    6041        A`      STR      r1,[r0,#4]
        0x000009b4:    4770        pG      BX       lr
    $d
        0x000009b6:    0000        ..      DCW    0
        0x000009b8:    40110000    ...@    DCD    1074855936
        0x000009bc:    2000061c    ...     DCD    536872476
    $t
    i.WriteData
    WriteData
        0x000009c0:    490a        .I      LDR      r1,[pc,#40] ; [0x9ec] = 0x2000001c
        0x000009c2:    68c9        .h      LDR      r1,[r1,#0xc]
        0x000009c4:    688a        .h      LDR      r2,[r1,#8]
        0x000009c6:    0892        ..      LSRS     r2,r2,#2
        0x000009c8:    0092        ..      LSLS     r2,r2,#2
        0x000009ca:    1c52        R.      ADDS     r2,r2,#1
        0x000009cc:    608a        .`      STR      r2,[r1,#8]
        0x000009ce:    30ff        .0      ADDS     r0,r0,#0xff
        0x000009d0:    3001        .0      ADDS     r0,#1
        0x000009d2:    6208        .b      STR      r0,[r1,#0x20]
        0x000009d4:    6808        .h      LDR      r0,[r1,#0]
        0x000009d6:    2201        ."      MOVS     r2,#1
        0x000009d8:    4310        .C      ORRS     r0,r0,r2
        0x000009da:    6008        .`      STR      r0,[r1,#0]
        0x000009dc:    6808        .h      LDR      r0,[r1,#0]
        0x000009de:    07c0        ..      LSLS     r0,r0,#31
        0x000009e0:    d1fc        ..      BNE      0x9dc ; WriteData + 28
        0x000009e2:    6888        .h      LDR      r0,[r1,#8]
        0x000009e4:    0880        ..      LSRS     r0,r0,#2
        0x000009e6:    0080        ..      LSLS     r0,r0,#2
        0x000009e8:    6088        .`      STR      r0,[r1,#8]
        0x000009ea:    4770        pG      BX       lr
    $d
        0x000009ec:    2000001c    ...     DCD    536870940
    $t
    i.__0sprintf$6
    __0sprintf$6
    __1sprintf$6
    __2sprintf
        0x000009f0:    b40f        ..      PUSH     {r0-r3}
        0x000009f2:    b510        ..      PUSH     {r4,lr}
        0x000009f4:    a904        ..      ADD      r1,sp,#0x10
        0x000009f6:    aa02        ..      ADD      r2,sp,#8
        0x000009f8:    4b06        .K      LDR      r3,[pc,#24] ; [0xa14] = 0xd9f
        0x000009fa:    9803        ..      LDR      r0,[sp,#0xc]
        0x000009fc:    f000f828    ..(.    BL       _printf_core ; 0xa50
        0x00000a00:    4604        .F      MOV      r4,r0
        0x00000a02:    a902        ..      ADD      r1,sp,#8
        0x00000a04:    2000        .       MOVS     r0,#0
        0x00000a06:    f000f9ca    ....    BL       _sputc ; 0xd9e
        0x00000a0a:    4620         F      MOV      r0,r4
        0x00000a0c:    bc10        ..      POP      {r4}
        0x00000a0e:    bc08        ..      POP      {r3}
        0x00000a10:    b004        ..      ADD      sp,sp,#0x10
        0x00000a12:    4718        .G      BX       r3
    $d
        0x00000a14:    00000d9f    ....    DCD    3487
    $t
    i.__ARM_common_switch8
    __ARM_common_switch8
        0x00000a18:    b430        0.      PUSH     {r4,r5}
        0x00000a1a:    4674        tF      MOV      r4,lr
        0x00000a1c:    1e64        d.      SUBS     r4,r4,#1
        0x00000a1e:    7825        %x      LDRB     r5,[r4,#0]
        0x00000a20:    1c64        d.      ADDS     r4,r4,#1
        0x00000a22:    42ab        .B      CMP      r3,r5
        0x00000a24:    d200        ..      BCS      0xa28 ; __ARM_common_switch8 + 16
        0x00000a26:    461d        .F      MOV      r5,r3
        0x00000a28:    5d63        c]      LDRB     r3,[r4,r5]
        0x00000a2a:    005b        [.      LSLS     r3,r3,#1
        0x00000a2c:    18e3        ..      ADDS     r3,r4,r3
        0x00000a2e:    bc30        0.      POP      {r4,r5}
        0x00000a30:    4718        .G      BX       r3
    i.__scatterload_copy
    __scatterload_copy
        0x00000a32:    e002        ..      B        0xa3a ; __scatterload_copy + 8
        0x00000a34:    c808        ..      LDM      r0!,{r3}
        0x00000a36:    1f12        ..      SUBS     r2,r2,#4
        0x00000a38:    c108        ..      STM      r1!,{r3}
        0x00000a3a:    2a00        .*      CMP      r2,#0
        0x00000a3c:    d1fa        ..      BNE      0xa34 ; __scatterload_copy + 2
        0x00000a3e:    4770        pG      BX       lr
    i.__scatterload_null
    __scatterload_null
        0x00000a40:    4770        pG      BX       lr
    i.__scatterload_zeroinit
    __scatterload_zeroinit
        0x00000a42:    2000        .       MOVS     r0,#0
        0x00000a44:    e001        ..      B        0xa4a ; __scatterload_zeroinit + 8
        0x00000a46:    c101        ..      STM      r1!,{r0}
        0x00000a48:    1f12        ..      SUBS     r2,r2,#4
        0x00000a4a:    2a00        .*      CMP      r2,#0
        0x00000a4c:    d1fb        ..      BNE      0xa46 ; __scatterload_zeroinit + 4
        0x00000a4e:    4770        pG      BX       lr
    i._printf_core
    _printf_core
        0x00000a50:    b5ff        ..      PUSH     {r0-r7,lr}
        0x00000a52:    b08f        ..      SUB      sp,sp,#0x3c
        0x00000a54:    4605        .F      MOV      r5,r0
        0x00000a56:    2600        .&      MOVS     r6,#0
        0x00000a58:    e16e        n.      B        0xd38 ; _printf_core + 744
        0x00000a5a:    2825        %(      CMP      r0,#0x25
        0x00000a5c:    d17e        ~.      BNE      0xb5c ; _printf_core + 268
        0x00000a5e:    2400        .$      MOVS     r4,#0
        0x00000a60:    1c6d        m.      ADDS     r5,r5,#1
        0x00000a62:    4abb        .J      LDR      r2,[pc,#748] ; [0xd50] = 0x12809
        0x00000a64:    940e        ..      STR      r4,[sp,#0x38]
        0x00000a66:    2101        .!      MOVS     r1,#1
        0x00000a68:    940d        ..      STR      r4,[sp,#0x34]
        0x00000a6a:    782b        +x      LDRB     r3,[r5,#0]
        0x00000a6c:    4608        .F      MOV      r0,r1
        0x00000a6e:    3b20         ;      SUBS     r3,r3,#0x20
        0x00000a70:    4098        .@      LSLS     r0,r0,r3
        0x00000a72:    4603        .F      MOV      r3,r0
        0x00000a74:    4213        .B      TST      r3,r2
        0x00000a76:    d002        ..      BEQ      0xa7e ; _printf_core + 46
        0x00000a78:    4304        .C      ORRS     r4,r4,r0
        0x00000a7a:    1c6d        m.      ADDS     r5,r5,#1
        0x00000a7c:    e7f5        ..      B        0xa6a ; _printf_core + 26
        0x00000a7e:    7828        (x      LDRB     r0,[r5,#0]
        0x00000a80:    282a        *(      CMP      r0,#0x2a
        0x00000a82:    d117        ..      BNE      0xab4 ; _printf_core + 100
        0x00000a84:    9810        ..      LDR      r0,[sp,#0x40]
        0x00000a86:    c802        ..      LDM      r0!,{r1}
        0x00000a88:    910e        ..      STR      r1,[sp,#0x38]
        0x00000a8a:    9010        ..      STR      r0,[sp,#0x40]
        0x00000a8c:    2900        .)      CMP      r1,#0
        0x00000a8e:    da04        ..      BGE      0xa9a ; _printf_core + 74
        0x00000a90:    2001        .       MOVS     r0,#1
        0x00000a92:    0340        @.      LSLS     r0,r0,#13
        0x00000a94:    4304        .C      ORRS     r4,r4,r0
        0x00000a96:    4248        HB      RSBS     r0,r1,#0
        0x00000a98:    900e        ..      STR      r0,[sp,#0x38]
        0x00000a9a:    2002        .       MOVS     r0,#2
        0x00000a9c:    4304        .C      ORRS     r4,r4,r0
        0x00000a9e:    1c6d        m.      ADDS     r5,r5,#1
        0x00000aa0:    e00e        ..      B        0xac0 ; _printf_core + 112
        0x00000aa2:    9a0e        ..      LDR      r2,[sp,#0x38]
        0x00000aa4:    230a        .#      MOVS     r3,#0xa
        0x00000aa6:    435a        ZC      MULS     r2,r3,r2
        0x00000aa8:    3a30        0:      SUBS     r2,r2,#0x30
        0x00000aaa:    1880        ..      ADDS     r0,r0,r2
        0x00000aac:    430c        .C      ORRS     r4,r4,r1
        0x00000aae:    1c6d        m.      ADDS     r5,r5,#1
        0x00000ab0:    900e        ..      STR      r0,[sp,#0x38]
        0x00000ab2:    e000        ..      B        0xab6 ; _printf_core + 102
        0x00000ab4:    2102        .!      MOVS     r1,#2
        0x00000ab6:    7828        (x      LDRB     r0,[r5,#0]
        0x00000ab8:    4602        .F      MOV      r2,r0
        0x00000aba:    3a30        0:      SUBS     r2,r2,#0x30
        0x00000abc:    2a09        .*      CMP      r2,#9
        0x00000abe:    d9f0        ..      BLS      0xaa2 ; _printf_core + 82
        0x00000ac0:    7828        (x      LDRB     r0,[r5,#0]
        0x00000ac2:    282e        .(      CMP      r0,#0x2e
        0x00000ac4:    d117        ..      BNE      0xaf6 ; _printf_core + 166
        0x00000ac6:    2004        .       MOVS     r0,#4
        0x00000ac8:    4304        .C      ORRS     r4,r4,r0
        0x00000aca:    7868        hx      LDRB     r0,[r5,#1]
        0x00000acc:    1c6d        m.      ADDS     r5,r5,#1
        0x00000ace:    282a        *(      CMP      r0,#0x2a
        0x00000ad0:    d10c        ..      BNE      0xaec ; _printf_core + 156
        0x00000ad2:    9810        ..      LDR      r0,[sp,#0x40]
        0x00000ad4:    1c6d        m.      ADDS     r5,r5,#1
        0x00000ad6:    c802        ..      LDM      r0!,{r1}
        0x00000ad8:    910d        ..      STR      r1,[sp,#0x34]
        0x00000ada:    9010        ..      STR      r0,[sp,#0x40]
        0x00000adc:    e00b        ..      B        0xaf6 ; _printf_core + 166
        0x00000ade:    990d        ..      LDR      r1,[sp,#0x34]
        0x00000ae0:    220a        ."      MOVS     r2,#0xa
        0x00000ae2:    4351        QC      MULS     r1,r2,r1
        0x00000ae4:    3930        09      SUBS     r1,r1,#0x30
        0x00000ae6:    1840        @.      ADDS     r0,r0,r1
        0x00000ae8:    1c6d        m.      ADDS     r5,r5,#1
        0x00000aea:    900d        ..      STR      r0,[sp,#0x34]
        0x00000aec:    7828        (x      LDRB     r0,[r5,#0]
        0x00000aee:    4601        .F      MOV      r1,r0
        0x00000af0:    3930        09      SUBS     r1,r1,#0x30
        0x00000af2:    2909        .)      CMP      r1,#9
        0x00000af4:    d9f3        ..      BLS      0xade ; _printf_core + 142
        0x00000af6:    7828        (x      LDRB     r0,[r5,#0]
        0x00000af8:    286c        l(      CMP      r0,#0x6c
        0x00000afa:    d00f        ..      BEQ      0xb1c ; _printf_core + 204
        0x00000afc:    dc09        ..      BGT      0xb12 ; _printf_core + 194
        0x00000afe:    284c        L(      CMP      r0,#0x4c
        0x00000b00:    d019        ..      BEQ      0xb36 ; _printf_core + 230
        0x00000b02:    2868        h(      CMP      r0,#0x68
        0x00000b04:    d00d        ..      BEQ      0xb22 ; _printf_core + 210
        0x00000b06:    286a        j(      CMP      r0,#0x6a
        0x00000b08:    d116        ..      BNE      0xb38 ; _printf_core + 232
        0x00000b0a:    2001        .       MOVS     r0,#1
        0x00000b0c:    0540        @.      LSLS     r0,r0,#21
        0x00000b0e:    4304        .C      ORRS     r4,r4,r0
        0x00000b10:    e011        ..      B        0xb36 ; _printf_core + 230
        0x00000b12:    2874        t(      CMP      r0,#0x74
        0x00000b14:    d00f        ..      BEQ      0xb36 ; _printf_core + 230
        0x00000b16:    287a        z(      CMP      r0,#0x7a
        0x00000b18:    d10e        ..      BNE      0xb38 ; _printf_core + 232
        0x00000b1a:    e00c        ..      B        0xb36 ; _printf_core + 230
        0x00000b1c:    2101        .!      MOVS     r1,#1
        0x00000b1e:    0509        ..      LSLS     r1,r1,#20
        0x00000b20:    e001        ..      B        0xb26 ; _printf_core + 214
        0x00000b22:    2103        .!      MOVS     r1,#3
        0x00000b24:    0509        ..      LSLS     r1,r1,#20
        0x00000b26:    430c        .C      ORRS     r4,r4,r1
        0x00000b28:    7869        ix      LDRB     r1,[r5,#1]
        0x00000b2a:    4281        .B      CMP      r1,r0
        0x00000b2c:    d103        ..      BNE      0xb36 ; _printf_core + 230
        0x00000b2e:    2001        .       MOVS     r0,#1
        0x00000b30:    1c6d        m.      ADDS     r5,r5,#1
        0x00000b32:    0500        ..      LSLS     r0,r0,#20
        0x00000b34:    1824        $.      ADDS     r4,r4,r0
        0x00000b36:    1c6d        m.      ADDS     r5,r5,#1
        0x00000b38:    7828        (x      LDRB     r0,[r5,#0]
        0x00000b3a:    2869        i(      CMP      r0,#0x69
        0x00000b3c:    d006        ..      BEQ      0xb4c ; _printf_core + 252
        0x00000b3e:    dc18        ..      BGT      0xb72 ; _printf_core + 290
        0x00000b40:    2800        .(      CMP      r0,#0
        0x00000b42:    d078        x.      BEQ      0xc36 ; _printf_core + 486
        0x00000b44:    2863        c(      CMP      r0,#0x63
        0x00000b46:    d042        B.      BEQ      0xbce ; _printf_core + 382
        0x00000b48:    2864        d(      CMP      r0,#0x64
        0x00000b4a:    d187        ..      BNE      0xa5c ; _printf_core + 12
        0x00000b4c:    9910        ..      LDR      r1,[sp,#0x40]
        0x00000b4e:    270a        .'      MOVS     r7,#0xa
        0x00000b50:    c901        ..      LDM      r1!,{r0}
        0x00000b52:    9110        ..      STR      r1,[sp,#0x40]
        0x00000b54:    0261        a.      LSLS     r1,r4,#9
        0x00000b56:    0f49        I.      LSRS     r1,r1,#29
        0x00000b58:    2903        .)      CMP      r1,#3
        0x00000b5a:    e000        ..      B        0xb5e ; _printf_core + 270
        0x00000b5c:    e0f3        ..      B        0xd46 ; _printf_core + 758
        0x00000b5e:    d100        ..      BNE      0xb62 ; _printf_core + 274
        0x00000b60:    b200        ..      SXTH     r0,r0
        0x00000b62:    2904        .)      CMP      r1,#4
        0x00000b64:    d100        ..      BNE      0xb68 ; _printf_core + 280
        0x00000b66:    b240        @.      SXTB     r0,r0
        0x00000b68:    2800        .(      CMP      r0,#0
        0x00000b6a:    da78        x.      BGE      0xc5e ; _printf_core + 526
        0x00000b6c:    4240        @B      RSBS     r0,r0,#0
        0x00000b6e:    212d        -!      MOVS     r1,#0x2d
        0x00000b70:    e078        x.      B        0xc64 ; _printf_core + 532
        0x00000b72:    286e        n(      CMP      r0,#0x6e
        0x00000b74:    d011        ..      BEQ      0xb9a ; _printf_core + 330
        0x00000b76:    2873        s(      CMP      r0,#0x73
        0x00000b78:    d034        4.      BEQ      0xbe4 ; _printf_core + 404
        0x00000b7a:    2875        u(      CMP      r0,#0x75
        0x00000b7c:    d1e5        ..      BNE      0xb4a ; _printf_core + 250
        0x00000b7e:    9910        ..      LDR      r1,[sp,#0x40]
        0x00000b80:    270a        .'      MOVS     r7,#0xa
        0x00000b82:    c901        ..      LDM      r1!,{r0}
        0x00000b84:    9110        ..      STR      r1,[sp,#0x40]
        0x00000b86:    0261        a.      LSLS     r1,r4,#9
        0x00000b88:    0f49        I.      LSRS     r1,r1,#29
        0x00000b8a:    2903        .)      CMP      r1,#3
        0x00000b8c:    d100        ..      BNE      0xb90 ; _printf_core + 320
        0x00000b8e:    b280        ..      UXTH     r0,r0
        0x00000b90:    2904        .)      CMP      r1,#4
        0x00000b92:    d100        ..      BNE      0xb96 ; _printf_core + 326
        0x00000b94:    b2c0        ..      UXTB     r0,r0
        0x00000b96:    2100        .!      MOVS     r1,#0
        0x00000b98:    e067        g.      B        0xc6a ; _printf_core + 538
        0x00000b9a:    0260        `.      LSLS     r0,r4,#9
        0x00000b9c:    0f40        @.      LSRS     r0,r0,#29
        0x00000b9e:    2802        .(      CMP      r0,#2
        0x00000ba0:    d105        ..      BNE      0xbae ; _printf_core + 350
        0x00000ba2:    9810        ..      LDR      r0,[sp,#0x40]
        0x00000ba4:    17f2        ..      ASRS     r2,r6,#31
        0x00000ba6:    6801        .h      LDR      r1,[r0,#0]
        0x00000ba8:    600e        .`      STR      r6,[r1,#0]
        0x00000baa:    604a        J`      STR      r2,[r1,#4]
        0x00000bac:    e00c        ..      B        0xbc8 ; _printf_core + 376
        0x00000bae:    2803        .(      CMP      r0,#3
        0x00000bb0:    d103        ..      BNE      0xbba ; _printf_core + 362
        0x00000bb2:    9810        ..      LDR      r0,[sp,#0x40]
        0x00000bb4:    6801        .h      LDR      r1,[r0,#0]
        0x00000bb6:    800e        ..      STRH     r6,[r1,#0]
        0x00000bb8:    e006        ..      B        0xbc8 ; _printf_core + 376
        0x00000bba:    2804        .(      CMP      r0,#4
        0x00000bbc:    9810        ..      LDR      r0,[sp,#0x40]
        0x00000bbe:    6801        .h      LDR      r1,[r0,#0]
        0x00000bc0:    d101        ..      BNE      0xbc6 ; _printf_core + 374
        0x00000bc2:    700e        .p      STRB     r6,[r1,#0]
        0x00000bc4:    e000        ..      B        0xbc8 ; _printf_core + 376
        0x00000bc6:    600e        .`      STR      r6,[r1,#0]
        0x00000bc8:    1d00        ..      ADDS     r0,r0,#4
        0x00000bca:    9010        ..      STR      r0,[sp,#0x40]
        0x00000bcc:    e0b3        ..      B        0xd36 ; _printf_core + 742
        0x00000bce:    9810        ..      LDR      r0,[sp,#0x40]
        0x00000bd0:    ab08        ..      ADD      r3,sp,#0x20
        0x00000bd2:    c802        ..      LDM      r0!,{r1}
        0x00000bd4:    7319        .s      STRB     r1,[r3,#0xc]
        0x00000bd6:    9010        ..      STR      r0,[sp,#0x40]
        0x00000bd8:    2000        .       MOVS     r0,#0
        0x00000bda:    7358        Xs      STRB     r0,[r3,#0xd]
        0x00000bdc:    a80b        ..      ADD      r0,sp,#0x2c
        0x00000bde:    900c        ..      STR      r0,[sp,#0x30]
        0x00000be0:    2001        .       MOVS     r0,#1
        0x00000be2:    e005        ..      B        0xbf0 ; _printf_core + 416
        0x00000be4:    9810        ..      LDR      r0,[sp,#0x40]
        0x00000be6:    c802        ..      LDM      r0!,{r1}
        0x00000be8:    9010        ..      STR      r0,[sp,#0x40]
        0x00000bea:    2000        .       MOVS     r0,#0
        0x00000bec:    910c        ..      STR      r1,[sp,#0x30]
        0x00000bee:    43c0        .C      MVNS     r0,r0
        0x00000bf0:    0761        a.      LSLS     r1,r4,#29
        0x00000bf2:    d50c        ..      BPL      0xc0e ; _printf_core + 446
        0x00000bf4:    2700        .'      MOVS     r7,#0
        0x00000bf6:    e000        ..      B        0xbfa ; _printf_core + 426
        0x00000bf8:    1c7f        ..      ADDS     r7,r7,#1
        0x00000bfa:    990d        ..      LDR      r1,[sp,#0x34]
        0x00000bfc:    428f        .B      CMP      r7,r1
        0x00000bfe:    da0f        ..      BGE      0xc20 ; _printf_core + 464
        0x00000c00:    4287        .B      CMP      r7,r0
        0x00000c02:    dbf9        ..      BLT      0xbf8 ; _printf_core + 424
        0x00000c04:    990c        ..      LDR      r1,[sp,#0x30]
        0x00000c06:    5dc9        .]      LDRB     r1,[r1,r7]
        0x00000c08:    2900        .)      CMP      r1,#0
        0x00000c0a:    d1f5        ..      BNE      0xbf8 ; _printf_core + 424
        0x00000c0c:    e008        ..      B        0xc20 ; _printf_core + 464
        0x00000c0e:    2700        .'      MOVS     r7,#0
        0x00000c10:    e000        ..      B        0xc14 ; _printf_core + 452
        0x00000c12:    1c7f        ..      ADDS     r7,r7,#1
        0x00000c14:    4287        .B      CMP      r7,r0
        0x00000c16:    dbfc        ..      BLT      0xc12 ; _printf_core + 450
        0x00000c18:    990c        ..      LDR      r1,[sp,#0x30]
        0x00000c1a:    5dc9        .]      LDRB     r1,[r1,r7]
        0x00000c1c:    2900        .)      CMP      r1,#0
        0x00000c1e:    d1f8        ..      BNE      0xc12 ; _printf_core + 450
        0x00000c20:    980e        ..      LDR      r0,[sp,#0x38]
        0x00000c22:    4621        !F      MOV      r1,r4
        0x00000c24:    1bc0        ..      SUBS     r0,r0,r7
        0x00000c26:    900e        ..      STR      r0,[sp,#0x38]
        0x00000c28:    9b12        ..      LDR      r3,[sp,#0x48]
        0x00000c2a:    9a11        ..      LDR      r2,[sp,#0x44]
        0x00000c2c:    f000f8a2    ....    BL       _printf_pre_padding ; 0xd74
        0x00000c30:    1980        ..      ADDS     r0,r0,r6
        0x00000c32:    19c6        ..      ADDS     r6,r0,r7
        0x00000c34:    e008        ..      B        0xc48 ; _printf_core + 504
        0x00000c36:    e083        ..      B        0xd40 ; _printf_core + 752
        0x00000c38:    980c        ..      LDR      r0,[sp,#0x30]
        0x00000c3a:    990c        ..      LDR      r1,[sp,#0x30]
        0x00000c3c:    7800        .x      LDRB     r0,[r0,#0]
        0x00000c3e:    1c49        I.      ADDS     r1,r1,#1
        0x00000c40:    910c        ..      STR      r1,[sp,#0x30]
        0x00000c42:    9a12        ..      LDR      r2,[sp,#0x48]
        0x00000c44:    9911        ..      LDR      r1,[sp,#0x44]
        0x00000c46:    4790        .G      BLX      r2
        0x00000c48:    1e7f        ..      SUBS     r7,r7,#1
        0x00000c4a:    d2f5        ..      BCS      0xc38 ; _printf_core + 488
        0x00000c4c:    4621        !F      MOV      r1,r4
        0x00000c4e:    9b12        ..      LDR      r3,[sp,#0x48]
        0x00000c50:    9a11        ..      LDR      r2,[sp,#0x44]
        0x00000c52:    980e        ..      LDR      r0,[sp,#0x38]
        0x00000c54:    f000f87e    ..~.    BL       _printf_post_padding ; 0xd54
        0x00000c58:    1986        ..      ADDS     r6,r0,r6
        0x00000c5a:    e06c        l.      B        0xd36 ; _printf_core + 742
        0x00000c5c:    e7ff        ..      B        0xc5e ; _printf_core + 526
        0x00000c5e:    0521        !.      LSLS     r1,r4,#20
        0x00000c60:    d505        ..      BPL      0xc6e ; _printf_core + 542
        0x00000c62:    212b        +!      MOVS     r1,#0x2b
        0x00000c64:    466b        kF      MOV      r3,sp
        0x00000c66:    7319        .s      STRB     r1,[r3,#0xc]
        0x00000c68:    2101        .!      MOVS     r1,#1
        0x00000c6a:    9101        ..      STR      r1,[sp,#4]
        0x00000c6c:    e003        ..      B        0xc76 ; _printf_core + 550
        0x00000c6e:    07e1        ..      LSLS     r1,r4,#31
        0x00000c70:    d091        ..      BEQ      0xb96 ; _printf_core + 326
        0x00000c72:    2120         !      MOVS     r1,#0x20
        0x00000c74:    e7f6        ..      B        0xc64 ; _printf_core + 532
        0x00000c76:    a90d        ..      ADD      r1,sp,#0x34
        0x00000c78:    9104        ..      STR      r1,[sp,#0x10]
        0x00000c7a:    e007        ..      B        0xc8c ; _printf_core + 572
        0x00000c7c:    4639        9F      MOV      r1,r7
        0x00000c7e:    f7fffa4f    ..O.    BL       __aeabi_uidiv ; 0x120
        0x00000c82:    9a04        ..      LDR      r2,[sp,#0x10]
        0x00000c84:    3130        01      ADDS     r1,r1,#0x30
        0x00000c86:    1e52        R.      SUBS     r2,r2,#1
        0x00000c88:    9204        ..      STR      r2,[sp,#0x10]
        0x00000c8a:    7011        .p      STRB     r1,[r2,#0]
        0x00000c8c:    2800        .(      CMP      r0,#0
        0x00000c8e:    d1f5        ..      BNE      0xc7c ; _printf_core + 556
        0x00000c90:    9804        ..      LDR      r0,[sp,#0x10]
        0x00000c92:    a905        ..      ADD      r1,sp,#0x14
        0x00000c94:    1a08        ..      SUBS     r0,r1,r0
        0x00000c96:    3020         0      ADDS     r0,r0,#0x20
        0x00000c98:    9002        ..      STR      r0,[sp,#8]
        0x00000c9a:    0760        `.      LSLS     r0,r4,#29
        0x00000c9c:    d503        ..      BPL      0xca6 ; _printf_core + 598
        0x00000c9e:    2001        .       MOVS     r0,#1
        0x00000ca0:    0400        ..      LSLS     r0,r0,#16
        0x00000ca2:    4384        .C      BICS     r4,r4,r0
        0x00000ca4:    e001        ..      B        0xcaa ; _printf_core + 602
        0x00000ca6:    2001        .       MOVS     r0,#1
        0x00000ca8:    900d        ..      STR      r0,[sp,#0x34]
        0x00000caa:    9a02        ..      LDR      r2,[sp,#8]
        0x00000cac:    990d        ..      LDR      r1,[sp,#0x34]
        0x00000cae:    2000        .       MOVS     r0,#0
        0x00000cb0:    4291        .B      CMP      r1,r2
        0x00000cb2:    dd00        ..      BLE      0xcb6 ; _printf_core + 614
        0x00000cb4:    1a88        ..      SUBS     r0,r1,r2
        0x00000cb6:    900d        ..      STR      r0,[sp,#0x34]
        0x00000cb8:    9901        ..      LDR      r1,[sp,#4]
        0x00000cba:    1880        ..      ADDS     r0,r0,r2
        0x00000cbc:    1841        A.      ADDS     r1,r0,r1
        0x00000cbe:    980e        ..      LDR      r0,[sp,#0x38]
        0x00000cc0:    1a40        @.      SUBS     r0,r0,r1
        0x00000cc2:    900e        ..      STR      r0,[sp,#0x38]
        0x00000cc4:    03e0        ..      LSLS     r0,r4,#15
        0x00000cc6:    d406        ..      BMI      0xcd6 ; _printf_core + 646
        0x00000cc8:    4621        !F      MOV      r1,r4
        0x00000cca:    9b12        ..      LDR      r3,[sp,#0x48]
        0x00000ccc:    9a11        ..      LDR      r2,[sp,#0x44]
        0x00000cce:    980e        ..      LDR      r0,[sp,#0x38]
        0x00000cd0:    f000f850    ..P.    BL       _printf_pre_padding ; 0xd74
        0x00000cd4:    1986        ..      ADDS     r6,r0,r6
        0x00000cd6:    2700        .'      MOVS     r7,#0
        0x00000cd8:    e006        ..      B        0xce8 ; _printf_core + 664
        0x00000cda:    a803        ..      ADD      r0,sp,#0xc
        0x00000cdc:    9a12        ..      LDR      r2,[sp,#0x48]
        0x00000cde:    5dc0        .]      LDRB     r0,[r0,r7]
        0x00000ce0:    9911        ..      LDR      r1,[sp,#0x44]
        0x00000ce2:    4790        .G      BLX      r2
        0x00000ce4:    1c76        v.      ADDS     r6,r6,#1
        0x00000ce6:    1c7f        ..      ADDS     r7,r7,#1
        0x00000ce8:    9801        ..      LDR      r0,[sp,#4]
        0x00000cea:    4287        .B      CMP      r7,r0
        0x00000cec:    dbf5        ..      BLT      0xcda ; _printf_core + 650
        0x00000cee:    03e0        ..      LSLS     r0,r4,#15
        0x00000cf0:    d50c        ..      BPL      0xd0c ; _printf_core + 700
        0x00000cf2:    4621        !F      MOV      r1,r4
        0x00000cf4:    9b12        ..      LDR      r3,[sp,#0x48]
        0x00000cf6:    9a11        ..      LDR      r2,[sp,#0x44]
        0x00000cf8:    980e        ..      LDR      r0,[sp,#0x38]
        0x00000cfa:    f000f83b    ..;.    BL       _printf_pre_padding ; 0xd74
        0x00000cfe:    1986        ..      ADDS     r6,r0,r6
        0x00000d00:    e004        ..      B        0xd0c ; _printf_core + 700
        0x00000d02:    9a12        ..      LDR      r2,[sp,#0x48]
        0x00000d04:    2030        0       MOVS     r0,#0x30
        0x00000d06:    9911        ..      LDR      r1,[sp,#0x44]
        0x00000d08:    4790        .G      BLX      r2
        0x00000d0a:    1c76        v.      ADDS     r6,r6,#1
        0x00000d0c:    980d        ..      LDR      r0,[sp,#0x34]
        0x00000d0e:    1e41        A.      SUBS     r1,r0,#1
        0x00000d10:    910d        ..      STR      r1,[sp,#0x34]
        0x00000d12:    2800        .(      CMP      r0,#0
        0x00000d14:    dcf5        ..      BGT      0xd02 ; _printf_core + 690
        0x00000d16:    e008        ..      B        0xd2a ; _printf_core + 730
        0x00000d18:    9804        ..      LDR      r0,[sp,#0x10]
        0x00000d1a:    9904        ..      LDR      r1,[sp,#0x10]
        0x00000d1c:    7800        .x      LDRB     r0,[r0,#0]
        0x00000d1e:    1c49        I.      ADDS     r1,r1,#1
        0x00000d20:    9104        ..      STR      r1,[sp,#0x10]
        0x00000d22:    9a12        ..      LDR      r2,[sp,#0x48]
        0x00000d24:    9911        ..      LDR      r1,[sp,#0x44]
        0x00000d26:    4790        .G      BLX      r2
        0x00000d28:    1c76        v.      ADDS     r6,r6,#1
        0x00000d2a:    9802        ..      LDR      r0,[sp,#8]
        0x00000d2c:    1e41        A.      SUBS     r1,r0,#1
        0x00000d2e:    9102        ..      STR      r1,[sp,#8]
        0x00000d30:    2800        .(      CMP      r0,#0
        0x00000d32:    dcf1        ..      BGT      0xd18 ; _printf_core + 712
        0x00000d34:    e78a        ..      B        0xc4c ; _printf_core + 508
        0x00000d36:    1c6d        m.      ADDS     r5,r5,#1
        0x00000d38:    7828        (x      LDRB     r0,[r5,#0]
        0x00000d3a:    2800        .(      CMP      r0,#0
        0x00000d3c:    d000        ..      BEQ      0xd40 ; _printf_core + 752
        0x00000d3e:    e68c        ..      B        0xa5a ; _printf_core + 10
        0x00000d40:    4630        0F      MOV      r0,r6
        0x00000d42:    b013        ..      ADD      sp,sp,#0x4c
        0x00000d44:    bdf0        ..      POP      {r4-r7,pc}
        0x00000d46:    9a12        ..      LDR      r2,[sp,#0x48]
        0x00000d48:    9911        ..      LDR      r1,[sp,#0x44]
        0x00000d4a:    4790        .G      BLX      r2
        0x00000d4c:    1c76        v.      ADDS     r6,r6,#1
        0x00000d4e:    e7f2        ..      B        0xd36 ; _printf_core + 742
    $d
        0x00000d50:    00012809    .(..    DCD    75785
    $t
    i._printf_post_padding
    _printf_post_padding
        0x00000d54:    b5f8        ..      PUSH     {r3-r7,lr}
        0x00000d56:    4604        .F      MOV      r4,r0
        0x00000d58:    2500        .%      MOVS     r5,#0
        0x00000d5a:    4617        .F      MOV      r7,r2
        0x00000d5c:    461e        .F      MOV      r6,r3
        0x00000d5e:    0488        ..      LSLS     r0,r1,#18
        0x00000d60:    d506        ..      BPL      0xd70 ; _printf_post_padding + 28
        0x00000d62:    e003        ..      B        0xd6c ; _printf_post_padding + 24
        0x00000d64:    4639        9F      MOV      r1,r7
        0x00000d66:    2020                MOVS     r0,#0x20
        0x00000d68:    47b0        .G      BLX      r6
        0x00000d6a:    1c6d        m.      ADDS     r5,r5,#1
        0x00000d6c:    1e64        d.      SUBS     r4,r4,#1
        0x00000d6e:    d5f9        ..      BPL      0xd64 ; _printf_post_padding + 16
        0x00000d70:    4628        (F      MOV      r0,r5
        0x00000d72:    bdf8        ..      POP      {r3-r7,pc}
    i._printf_pre_padding
    _printf_pre_padding
        0x00000d74:    b5ff        ..      PUSH     {r0-r7,lr}
        0x00000d76:    4604        .F      MOV      r4,r0
        0x00000d78:    2500        .%      MOVS     r5,#0
        0x00000d7a:    2730        0'      MOVS     r7,#0x30
        0x00000d7c:    b081        ..      SUB      sp,sp,#4
        0x00000d7e:    461e        .F      MOV      r6,r3
        0x00000d80:    03c8        ..      LSLS     r0,r1,#15
        0x00000d82:    d400        ..      BMI      0xd86 ; _printf_pre_padding + 18
        0x00000d84:    2720         '      MOVS     r7,#0x20
        0x00000d86:    0488        ..      LSLS     r0,r1,#18
        0x00000d88:    d406        ..      BMI      0xd98 ; _printf_pre_padding + 36
        0x00000d8a:    e003        ..      B        0xd94 ; _printf_pre_padding + 32
        0x00000d8c:    4638        8F      MOV      r0,r7
        0x00000d8e:    9903        ..      LDR      r1,[sp,#0xc]
        0x00000d90:    47b0        .G      BLX      r6
        0x00000d92:    1c6d        m.      ADDS     r5,r5,#1
        0x00000d94:    1e64        d.      SUBS     r4,r4,#1
        0x00000d96:    d5f9        ..      BPL      0xd8c ; _printf_pre_padding + 24
        0x00000d98:    4628        (F      MOV      r0,r5
        0x00000d9a:    b005        ..      ADD      sp,sp,#0x14
        0x00000d9c:    bdf0        ..      POP      {r4-r7,pc}
    i._sputc
    _sputc
        0x00000d9e:    680a        .h      LDR      r2,[r1,#0]
        0x00000da0:    1c53        S.      ADDS     r3,r2,#1
        0x00000da2:    600b        .`      STR      r3,[r1,#0]
        0x00000da4:    7010        .p      STRB     r0,[r2,#0]
        0x00000da6:    4770        pG      BX       lr
    i.clr_all_panel
    clr_all_panel
        0x00000da8:    b510        ..      PUSH     {r4,lr}
        0x00000daa:    2400        .$      MOVS     r4,#0
        0x00000dac:    4621        !F      MOV      r1,r4
        0x00000dae:    4620         F      MOV      r0,r4
        0x00000db0:    f7fffd24    ..$.    BL       SetPACA ; 0x7fc
        0x00000db4:    2321        !#      MOVS     r3,#0x21
        0x00000db6:    015b        [.      LSLS     r3,r3,#5
        0x00000db8:    2000        .       MOVS     r0,#0
        0x00000dba:    f7fffe01    ....    BL       WriteData ; 0x9c0
        0x00000dbe:    1c64        d.      ADDS     r4,r4,#1
        0x00000dc0:    429c        .B      CMP      r4,r3
        0x00000dc2:    dbf9        ..      BLT      0xdb8 ; clr_all_panel + 16
        0x00000dc4:    200f        .       MOVS     r0,#0xf
        0x00000dc6:    f7fffdfb    ....    BL       WriteData ; 0x9c0
        0x00000dca:    bd10        ..      POP      {r4,pc}
    i.generateOTP
    generateOTP
        0x00000dcc:    b570        p.      PUSH     {r4-r6,lr}
        0x00000dce:    f7fffa03    ....    BL       DistMeasure ; 0x1d8
        0x00000dd2:    f7fff9d8    ....    BL       srand ; 0x186
        0x00000dd6:    2400        .$      MOVS     r4,#0
        0x00000dd8:    4d06        .M      LDR      r5,[pc,#24] ; [0xdf4] = 0x2000062c
        0x00000dda:    f7fff9cb    ....    BL       rand ; 0x174
        0x00000dde:    210a        .!      MOVS     r1,#0xa
        0x00000de0:    f7fff9b4    ....    BL       __aeabi_idiv ; 0x14c
        0x00000de4:    3130        01      ADDS     r1,r1,#0x30
        0x00000de6:    5529        )U      STRB     r1,[r5,r4]
        0x00000de8:    1c64        d.      ADDS     r4,r4,#1
        0x00000dea:    2c04        .,      CMP      r4,#4
        0x00000dec:    dbf5        ..      BLT      0xdda ; generateOTP + 14
        0x00000dee:    2000        .       MOVS     r0,#0
        0x00000df0:    7128        (q      STRB     r0,[r5,#4]
        0x00000df2:    bd70        p.      POP      {r4-r6,pc}
    $d
        0x00000df4:    2000062c    ,..     DCD    536872492
    $t
    i.main
    main
        0x00000df8:    b510        ..      PUSH     {r4,lr}
        0x00000dfa:    4c18        .L      LDR      r4,[pc,#96] ; [0xe5c] = 0x50000100
        0x00000dfc:    2059        Y       MOVS     r0,#0x59
        0x00000dfe:    6020         `      STR      r0,[r4,#0]
        0x00000e00:    2016        .       MOVS     r0,#0x16
        0x00000e02:    6020         `      STR      r0,[r4,#0]
        0x00000e04:    2088        .       MOVS     r0,#0x88
        0x00000e06:    6020         `      STR      r0,[r4,#0]
        0x00000e08:    2101        .!      MOVS     r1,#1
        0x00000e0a:    2000        .       MOVS     r0,#0
        0x00000e0c:    f7fffb2c    ..,.    BL       DrvSYS_SetOscCtrl ; 0x468
        0x00000e10:    2000        .       MOVS     r0,#0
        0x00000e12:    f7fffa51    ..Q.    BL       DrvSYS_GetChipClockSourceStatus ; 0x2b8
        0x00000e16:    2800        .(      CMP      r0,#0
        0x00000e18:    d0fa        ..      BEQ      0xe10 ; main + 24
        0x00000e1a:    4811        .H      LDR      r0,[pc,#68] ; [0xe60] = 0x2faf080
        0x00000e1c:    f7fffac8    ....    BL       DrvSYS_Open ; 0x3b0
        0x00000e20:    2000        .       MOVS     r0,#0
        0x00000e22:    6020         `      STR      r0,[r4,#0]
        0x00000e24:    f7fffc42    ..B.    BL       Initial_panel ; 0x6ac
        0x00000e28:    f7ffffbe    ....    BL       clr_all_panel ; 0xda8
        0x00000e2c:    a10d        ..      ADR      r1,{pc}+0x38 ; 0xe64
        0x00000e2e:    2000        .       MOVS     r0,#0
        0x00000e30:    f000f828    ..(.    BL       print_lcd ; 0xe84
        0x00000e34:    a110        ..      ADR      r1,{pc}+0x44 ; 0xe78
        0x00000e36:    4812        .H      LDR      r0,[pc,#72] ; [0xe80] = 0x2000064a
        0x00000e38:    f7fffdda    ....    BL       __0sprintf$6 ; 0x9f0
        0x00000e3c:    f7fffba8    ....    BL       InitTIMER0 ; 0x590
        0x00000e40:    f7fffbea    ....    BL       Init_TMR2 ; 0x618
        0x00000e44:    f7fffbd4    ....    BL       Init_GPIO_SR04 ; 0x5f0
        0x00000e48:    f7ffffc0    ....    BL       generateOTP ; 0xdcc
        0x00000e4c:    490c        .I      LDR      r1,[pc,#48] ; [0xe80] = 0x2000064a
        0x00000e4e:    2003        .       MOVS     r0,#3
        0x00000e50:    391e        .9      SUBS     r1,r1,#0x1e
        0x00000e52:    f000f817    ....    BL       print_lcd ; 0xe84
        0x00000e56:    2000        .       MOVS     r0,#0
        0x00000e58:    bd10        ..      POP      {r4,pc}
    $d
        0x00000e5a:    0000        ..      DCW    0
        0x00000e5c:    50000100    ...P    DCD    1342177536
        0x00000e60:    02faf080    ....    DCD    50000000
        0x00000e64:    61472020      Ga    DCD    1632051232
        0x00000e68:    43206574    te C    DCD    1126196596
        0x00000e6c:    72746e6f    ontr    DCD    1920233071
        0x00000e70:    20206c6f    ol      DCD    538995823
        0x00000e74:    00000000    ....    DCD    0
        0x00000e78:    454c4449    IDLE    DCD    1162626121
        0x00000e7c:    00202020       .    DCD    2105376
        0x00000e80:    2000064a    J..     DCD    536872522
    $t
    i.print_lcd
    print_lcd
        0x00000e84:    b570        p.      PUSH     {r4-r6,lr}
        0x00000e86:    4606        .F      MOV      r6,r0
        0x00000e88:    460d        .F      MOV      r5,r1
        0x00000e8a:    2400        .$      MOVS     r4,#0
        0x00000e8c:    782a        *x      LDRB     r2,[r5,#0]
        0x00000e8e:    1c6d        m.      ADDS     r5,r5,#1
        0x00000e90:    b2e1        ..      UXTB     r1,r4
        0x00000e92:    4630        0F      MOV      r0,r6
        0x00000e94:    f7fffcee    ....    BL       Show_Word ; 0x874
        0x00000e98:    1c64        d.      ADDS     r4,r4,#1
        0x00000e9a:    2c0f        .,      CMP      r4,#0xf
        0x00000e9c:    dc02        ..      BGT      0xea4 ; print_lcd + 32
        0x00000e9e:    7828        (x      LDRB     r0,[r5,#0]
        0x00000ea0:    2800        .(      CMP      r0,#0
        0x00000ea2:    d1f3        ..      BNE      0xe8c ; print_lcd + 8
        0x00000ea4:    bd70        p.      POP      {r4-r6,pc}
        0x00000ea6:    0000        ..      MOVS     r0,r0
    $d.realdata
    Region$$Table$$Base
        0x00000ea8:    00000ec8    ....    DCD    3784
        0x00000eac:    20000000    ...     DCD    536870912
        0x00000eb0:    00000670    p...    DCD    1648
        0x00000eb4:    00000a32    2...    DCD    2610
        0x00000eb8:    00001538    8...    DCD    5432
        0x00000ebc:    20000670    p..     DCD    536872560
        0x00000ec0:    00000400    ....    DCD    1024
        0x00000ec4:    00000a42    B...    DCD    2626
    Region$$Table$$Limit

** Section #2 'ER_RW' (SHT_PROGBITS) [SHF_ALLOC + SHF_WRITE]
    Size   : 1648 bytes (alignment 4)
    Address: 0x20000000


** Section #3 'ER_ZI' (SHT_NOBITS) [SHF_ALLOC + SHF_WRITE]
    Size   : 1024 bytes (alignment 8)
    Address: 0x20000670


** Section #4 '.debug_abbrev' (SHT_PROGBITS)
    Size   : 1464 bytes


** Section #5 '.debug_frame' (SHT_PROGBITS)
    Size   : 1520 bytes


** Section #6 '.debug_info' (SHT_PROGBITS)
    Size   : 116420 bytes


** Section #7 '.debug_line' (SHT_PROGBITS)
    Size   : 6560 bytes


** Section #8 '.debug_loc' (SHT_PROGBITS)
    Size   : 1960 bytes


** Section #9 '.debug_macinfo' (SHT_PROGBITS)
    Size   : 148288 bytes


** Section #10 '.debug_pubnames' (SHT_PROGBITS)
    Size   : 1492 bytes


** Section #11 '.symtab' (SHT_SYMTAB)
    Size   : 5312 bytes (alignment 4)
    String table #12 '.strtab'
    Last local symbol no. 193


** Section #12 '.strtab' (SHT_STRTAB)
    Size   : 4008 bytes


** Section #13 '.note' (SHT_NOTE)
    Size   : 28 bytes (alignment 4)


** Section #14 '.comment' (SHT_PROGBITS)
    Size   : 3736 bytes


** Section #15 '.shstrtab' (SHT_STRTAB)
    Size   : 156 bytes


