
========================================================================

** ELF Header Information

    File Name: .\obj\Smpl_Timer_SR04.axf

    Machine class: ELFCLASS32 (32-bit)
    Data encoding: ELFDATA2LSB (Little endian)
    Header version: EV_CURRENT (Current version)
    Operating System ABI: none
    ABI Version: 0
    File Type: ET_EXEC (Executable) (2)
    Machine: EM_ARM (ARM)

    Image Entry point: 0x000000d5
    Flags: EF_ARM_HASENTRY (0x05000002)

    ARM ELF revision: 5 (ABI version 2)

    Built with
    ARM C/C++ Compiler with , RVCT4.0 [Build 524] for uVision
    ARM Assembler, RVCT4.0 [Build 524]
    ARM Linker, RVCT4.0 [Build 524] for uVision 

    Header size: 52 bytes (0x34)
    Program header entry size: 32 bytes (0x20)
    Section header entry size: 40 bytes (0x28)

    Program header entries: 1
    Section header entries: 16

    Program header offset: 335124 (0x00051d14)
    Section header offset: 335156 (0x00051d34)

    Section header string table index: 15

========================================================================

** Program header #0 (PT_LOAD) [PF_X + PF_W + PF_R + PF_ARM_ENTRY]
    Size : 10776 bytes (9724 bytes in file)
    Virtual address: 0x00000000 (Alignment 8)


========================================================================

** Section #1 'ER_RO' (SHT_PROGBITS) [SHF_ALLOC + SHF_EXECINSTR]
    Size   : 8040 bytes (alignment 4)
    Address: 0x00000000

    $d.realdata
    RESET
    __Vectors
        0x00000000:    20000ab0    ...     DCD    536873648
        0x00000004:    000000d5    ....    DCD    213
        0x00000008:    000000f5    ....    DCD    245
        0x0000000c:    000000f7    ....    DCD    247
        0x00000010:    00000000    ....    DCD    0
        0x00000014:    00000000    ....    DCD    0
        0x00000018:    00000000    ....    DCD    0
        0x0000001c:    00000000    ....    DCD    0
        0x00000020:    00000000    ....    DCD    0
        0x00000024:    00000000    ....    DCD    0
        0x00000028:    00000000    ....    DCD    0
        0x0000002c:    000000f9    ....    DCD    249
        0x00000030:    00000000    ....    DCD    0
        0x00000034:    00000000    ....    DCD    0
        0x00000038:    000000fb    ....    DCD    251
        0x0000003c:    000000fd    ....    DCD    253
        0x00000040:    0000021d    ....    DCD    541
        0x00000044:    000000ff    ....    DCD    255
        0x00000048:    00000d89    ....    DCD    3465
        0x0000004c:    00000da5    ....    DCD    3493
        0x00000050:    00000dc1    ....    DCD    3521
        0x00000054:    00000df1    ....    DCD    3569
        0x00000058:    000000ff    ....    DCD    255
        0x0000005c:    000000ff    ....    DCD    255
        0x00000060:    0000169d    ....    DCD    5789
        0x00000064:    000000ff    ....    DCD    255
        0x00000068:    000016b9    ....    DCD    5817
        0x0000006c:    000000ff    ....    DCD    255
        0x00000070:    000016ed    ....    DCD    5869
        0x00000074:    00001719    ....    DCD    5913
        0x00000078:    000000ff    ....    DCD    255
        0x0000007c:    000000ff    ....    DCD    255
        0x00000080:    000000ff    ....    DCD    255
        0x00000084:    000000ff    ....    DCD    255
        0x00000088:    000000ff    ....    DCD    255
        0x0000008c:    000000ff    ....    DCD    255
        0x00000090:    000000ff    ....    DCD    255
        0x00000094:    000000ff    ....    DCD    255
        0x00000098:    000000ff    ....    DCD    255
        0x0000009c:    000000ff    ....    DCD    255
        0x000000a0:    000000ff    ....    DCD    255
        0x000000a4:    000000ff    ....    DCD    255
        0x000000a8:    000000ff    ....    DCD    255
        0x000000ac:    000000ff    ....    DCD    255
        0x000000b0:    00001485    ....    DCD    5253
        0x000000b4:    000000ff    ....    DCD    255
        0x000000b8:    000000ff    ....    DCD    255
        0x000000bc:    000000ff    ....    DCD    255
    $t
    .ARM.Collect$$$$00000000
    .ARM.Collect$$$$00000001
    __main
    _main_stk
        0x000000c0:    4803        .H      LDR      r0,__lit__00000000 ; [0xd0] = 0x20000ab0
        0x000000c2:    4685        .F      MOV      sp,r0
    .ARM.Collect$$$$00000004
    _main_scatterload
        0x000000c4:    f000f898    ....    BL       __scatterload ; 0x1f8
    .ARM.Collect$$$$00000007
    __main_after_scatterload
    _main_init
        0x000000c8:    4800        .H      LDR      r0,[pc,#0] ; [0xcc] = 0x1a95
        0x000000ca:    4700        .G      BX       r0
    $d
        0x000000cc:    00001a95    ....    DCD    6805
    .ARM.Collect$$$$00002712
    __lit__00000000
        0x000000d0:    20000ab0    ...     DCD    536873648
    $t
    .text
    Reset_Handler
        0x000000d4:    480a        .H      LDR      r0,[pc,#40] ; [0x100] = 0x50000100
        0x000000d6:    490b        .I      LDR      r1,[pc,#44] ; [0x104] = 0x59
        0x000000d8:    6001        .`      STR      r1,[r0,#0]
        0x000000da:    490b        .I      LDR      r1,[pc,#44] ; [0x108] = 0x16
        0x000000dc:    6001        .`      STR      r1,[r0,#0]
        0x000000de:    490b        .I      LDR      r1,[pc,#44] ; [0x10c] = 0x88
        0x000000e0:    6001        .`      STR      r1,[r0,#0]
        0x000000e2:    4a0b        .J      LDR      r2,[pc,#44] ; [0x110] = 0x50000024
        0x000000e4:    490b        .I      LDR      r1,[pc,#44] ; [0x114] = 0x5aa5
        0x000000e6:    6011        .`      STR      r1,[r2,#0]
        0x000000e8:    2100        .!      MOVS     r1,#0
        0x000000ea:    6001        .`      STR      r1,[r0,#0]
        0x000000ec:    480a        .H      LDR      r0,[pc,#40] ; [0x118] = 0x1699
        0x000000ee:    4780        .G      BLX      r0
        0x000000f0:    480a        .H      LDR      r0,[pc,#40] ; [0x11c] = 0xc1
        0x000000f2:    4700        .G      BX       r0
    NMI_Handler
        0x000000f4:    e7fe        ..      B        NMI_Handler ; 0xf4
    HardFault_Handler
        0x000000f6:    e7fe        ..      B        HardFault_Handler ; 0xf6
    SVC_Handler
        0x000000f8:    e7fe        ..      B        SVC_Handler ; 0xf8
    PendSV_Handler
        0x000000fa:    e7fe        ..      B        PendSV_Handler ; 0xfa
    SysTick_Handler
        0x000000fc:    e7fe        ..      B        SysTick_Handler ; 0xfc
    Default_Handler
    ACMP_IRQHandler
    ADC_IRQHandler
    CAN0_IRQHandler
    I2C0_IRQHandler
    I2C1_IRQHandler
    I2S_IRQHandler
    PDMA_IRQHandler
    PS2_IRQHandler
    PWMA_IRQHandler
    PWMB_IRQHandler
    RTC_IRQHandler
    SPI0_IRQHandler
    SPI1_IRQHandler
    SPI2_IRQHandler
    SPI3_IRQHandler
    TMR1_IRQHandler
    TMR3_IRQHandler
    USBD_IRQHandler
    WDT_IRQHandler
        0x000000fe:    e7fe        ..      B        Default_Handler ; 0xfe
    $d
        0x00000100:    50000100    ...P    DCD    1342177536
        0x00000104:    00000059    Y...    DCD    89
        0x00000108:    00000016    ....    DCD    22
        0x0000010c:    00000088    ....    DCD    136
        0x00000110:    50000024    $..P    DCD    1342177316
        0x00000114:    00005aa5    .Z..    DCD    23205
        0x00000118:    00001699    ....    DCD    5785
        0x0000011c:    000000c1    ....    DCD    193
    $t
    .text
    __aeabi_uidiv
    __aeabi_uidivmod
        0x00000120:    b530        0.      PUSH     {r4,r5,lr}
        0x00000122:    460b        .F      MOV      r3,r1
        0x00000124:    4601        .F      MOV      r1,r0
        0x00000126:    2000        .       MOVS     r0,#0
        0x00000128:    2220         "      MOVS     r2,#0x20
        0x0000012a:    2401        .$      MOVS     r4,#1
        0x0000012c:    e009        ..      B        0x142 ; __aeabi_uidiv + 34
        0x0000012e:    460d        .F      MOV      r5,r1
        0x00000130:    40d5        .@      LSRS     r5,r5,r2
        0x00000132:    429d        .B      CMP      r5,r3
        0x00000134:    d305        ..      BCC      0x142 ; __aeabi_uidiv + 34
        0x00000136:    461d        .F      MOV      r5,r3
        0x00000138:    4095        .@      LSLS     r5,r5,r2
        0x0000013a:    1b49        I.      SUBS     r1,r1,r5
        0x0000013c:    4625        %F      MOV      r5,r4
        0x0000013e:    4095        .@      LSLS     r5,r5,r2
        0x00000140:    1940        @.      ADDS     r0,r0,r5
        0x00000142:    4615        .F      MOV      r5,r2
        0x00000144:    1e52        R.      SUBS     r2,r2,#1
        0x00000146:    2d00        .-      CMP      r5,#0
        0x00000148:    dcf1        ..      BGT      0x12e ; __aeabi_uidiv + 14
        0x0000014a:    bd30        0.      POP      {r4,r5,pc}
    .text
    __aeabi_idiv
    __aeabi_idivmod
        0x0000014c:    b570        p.      PUSH     {r4-r6,lr}
        0x0000014e:    2400        .$      MOVS     r4,#0
        0x00000150:    4625        %F      MOV      r5,r4
        0x00000152:    2800        .(      CMP      r0,#0
        0x00000154:    da01        ..      BGE      0x15a ; __aeabi_idiv + 14
        0x00000156:    2401        .$      MOVS     r4,#1
        0x00000158:    4240        @B      RSBS     r0,r0,#0
        0x0000015a:    2900        .)      CMP      r1,#0
        0x0000015c:    da01        ..      BGE      0x162 ; __aeabi_idiv + 22
        0x0000015e:    2501        .%      MOVS     r5,#1
        0x00000160:    4249        IB      RSBS     r1,r1,#0
        0x00000162:    f7ffffdd    ....    BL       __aeabi_uidiv ; 0x120
        0x00000166:    42ac        .B      CMP      r4,r5
        0x00000168:    d000        ..      BEQ      0x16c ; __aeabi_idiv + 32
        0x0000016a:    4240        @B      RSBS     r0,r0,#0
        0x0000016c:    2c00        .,      CMP      r4,#0
        0x0000016e:    d000        ..      BEQ      0x172 ; __aeabi_idiv + 38
        0x00000170:    4249        IB      RSBS     r1,r1,#0
        0x00000172:    bd70        p.      POP      {r4-r6,pc}
    .text
    rand
        0x00000174:    4905        .I      LDR      r1,[pc,#20] ; [0x18c] = 0x20000690
        0x00000176:    4a06        .J      LDR      r2,[pc,#24] ; [0x190] = 0x41c64e6d
        0x00000178:    6808        .h      LDR      r0,[r1,#0]
        0x0000017a:    4350        PC      MULS     r0,r2,r0
        0x0000017c:    4a05        .J      LDR      r2,[pc,#20] ; [0x194] = 0x3039
        0x0000017e:    1880        ..      ADDS     r0,r0,r2
        0x00000180:    6008        .`      STR      r0,[r1,#0]
        0x00000182:    0840        @.      LSRS     r0,r0,#1
        0x00000184:    4770        pG      BX       lr
    srand
        0x00000186:    4901        .I      LDR      r1,[pc,#4] ; [0x18c] = 0x20000690
        0x00000188:    6008        .`      STR      r0,[r1,#0]
        0x0000018a:    4770        pG      BX       lr
    $d
        0x0000018c:    20000690    ...     DCD    536872592
        0x00000190:    41c64e6d    mN.A    DCD    1103515245
        0x00000194:    00003039    90..    DCD    12345
    $t
    .text
    __aeabi_memset
    __aeabi_memset4
    __aeabi_memset8
        0x00000198:    b2d2        ..      UXTB     r2,r2
        0x0000019a:    e001        ..      B        0x1a0 ; __aeabi_memset + 8
        0x0000019c:    7002        .p      STRB     r2,[r0,#0]
        0x0000019e:    1c40        @.      ADDS     r0,r0,#1
        0x000001a0:    1e49        I.      SUBS     r1,r1,#1
        0x000001a2:    d2fb        ..      BCS      0x19c ; __aeabi_memset + 4
        0x000001a4:    4770        pG      BX       lr
    __aeabi_memclr
    __aeabi_memclr4
    __aeabi_memclr8
        0x000001a6:    2200        ."      MOVS     r2,#0
        0x000001a8:    e7f6        ..      B        __aeabi_memset ; 0x198
    _memset$wrapper
        0x000001aa:    b510        ..      PUSH     {r4,lr}
        0x000001ac:    4604        .F      MOV      r4,r0
        0x000001ae:    4608        .F      MOV      r0,r1
        0x000001b0:    4611        .F      MOV      r1,r2
        0x000001b2:    4602        .F      MOV      r2,r0
        0x000001b4:    4620         F      MOV      r0,r4
        0x000001b6:    f7ffffef    ....    BL       __aeabi_memset ; 0x198
        0x000001ba:    4620         F      MOV      r0,r4
        0x000001bc:    bd10        ..      POP      {r4,pc}
    .text
    strcat
        0x000001be:    4603        .F      MOV      r3,r0
        0x000001c0:    e000        ..      B        0x1c4 ; strcat + 6
        0x000001c2:    1c40        @.      ADDS     r0,r0,#1
        0x000001c4:    7802        .x      LDRB     r2,[r0,#0]
        0x000001c6:    2a00        .*      CMP      r2,#0
        0x000001c8:    d1fb        ..      BNE      0x1c2 ; strcat + 4
        0x000001ca:    780a        .x      LDRB     r2,[r1,#0]
        0x000001cc:    7002        .p      STRB     r2,[r0,#0]
        0x000001ce:    1c49        I.      ADDS     r1,r1,#1
        0x000001d0:    1c40        @.      ADDS     r0,r0,#1
        0x000001d2:    2a00        .*      CMP      r2,#0
        0x000001d4:    d1f9        ..      BNE      0x1ca ; strcat + 12
        0x000001d6:    4618        .F      MOV      r0,r3
        0x000001d8:    4770        pG      BX       lr
    .text
    strcmp
        0x000001da:    b510        ..      PUSH     {r4,lr}
        0x000001dc:    2200        ."      MOVS     r2,#0
        0x000001de:    e000        ..      B        0x1e2 ; strcmp + 8
        0x000001e0:    1c52        R.      ADDS     r2,r2,#1
        0x000001e2:    5c83        .\      LDRB     r3,[r0,r2]
        0x000001e4:    5c8c        .\      LDRB     r4,[r1,r2]
        0x000001e6:    42a3        .B      CMP      r3,r4
        0x000001e8:    d101        ..      BNE      0x1ee ; strcmp + 20
        0x000001ea:    2b00        .+      CMP      r3,#0
        0x000001ec:    d1f8        ..      BNE      0x1e0 ; strcmp + 6
        0x000001ee:    5c80        .\      LDRB     r0,[r0,r2]
        0x000001f0:    5c89        .\      LDRB     r1,[r1,r2]
        0x000001f2:    1a40        @.      SUBS     r0,r0,r1
        0x000001f4:    bd10        ..      POP      {r4,pc}
        0x000001f6:    0000        ..      MOVS     r0,r0
    .text
    __scatterload
    __scatterload_rt2
        0x000001f8:    4c06        .L      LDR      r4,[pc,#24] ; [0x214] = 0x1f48
        0x000001fa:    2501        .%      MOVS     r5,#1
        0x000001fc:    4e06        .N      LDR      r6,[pc,#24] ; [0x218] = 0x1f68
        0x000001fe:    e005        ..      B        0x20c ; __scatterload + 20
        0x00000200:    4620         F      MOV      r0,r4
        0x00000202:    68e3        .h      LDR      r3,[r4,#0xc]
        0x00000204:    c807        ..      LDM      r0,{r0-r2}
        0x00000206:    432b        +C      ORRS     r3,r3,r5
        0x00000208:    4798        .G      BLX      r3
        0x0000020a:    3410        .4      ADDS     r4,r4,#0x10
        0x0000020c:    42b4        .B      CMP      r4,r6
        0x0000020e:    d3f7        ..      BCC      0x200 ; __scatterload + 8
        0x00000210:    f7ffff5a    ..Z.    BL       __main_after_scatterload ; 0xc8
    $d
        0x00000214:    00001f48    H...    DCD    8008
        0x00000218:    00001f68    h...    DCD    8040
    $t
    i.BOD_IRQHandler
    BOD_IRQHandler
        0x0000021c:    2005        .       MOVS     r0,#5
        0x0000021e:    0700        ..      LSLS     r0,r0,#28
        0x00000220:    6981        .i      LDR      r1,[r0,#0x18]
        0x00000222:    2210        ."      MOVS     r2,#0x10
        0x00000224:    4311        .C      ORRS     r1,r1,r2
        0x00000226:    6181        .a      STR      r1,[r0,#0x18]
        0x00000228:    4802        .H      LDR      r0,[pc,#8] ; [0x234] = 0x2000066c
        0x0000022a:    6800        .h      LDR      r0,[r0,#0]
        0x0000022c:    2800        .(      CMP      r0,#0
        0x0000022e:    d000        ..      BEQ      0x232 ; BOD_IRQHandler + 22
        0x00000230:    4700        .G      BX       r0
        0x00000232:    4770        pG      BX       lr
    $d
        0x00000234:    2000066c    l..     DCD    536872556
    $t
    i.BaudRateCalculator
    BaudRateCalculator
        0x00000238:    b5f8        ..      PUSH     {r3-r7,lr}
        0x0000023a:    4b21        !K      LDR      r3,[pc,#132] ; [0x2c0] = 0x40050000
        0x0000023c:    18d4        ..      ADDS     r4,r2,r3
        0x0000023e:    f7ffff6f    ..o.    BL       __aeabi_uidiv ; 0x120
        0x00000242:    4607        .F      MOV      r7,r0
        0x00000244:    2101        .!      MOVS     r1,#1
        0x00000246:    0700        ..      LSLS     r0,r0,#28
        0x00000248:    0749        I.      LSLS     r1,r1,#29
        0x0000024a:    0f00        ..      LSRS     r0,r0,#28
        0x0000024c:    104a        J.      ASRS     r2,r1,#1
        0x0000024e:    2803        .(      CMP      r0,#3
        0x00000250:    6a60        `j      LDR      r0,[r4,#0x24]
        0x00000252:    d207        ..      BCS      0x264 ; BaudRateCalculator + 44
        0x00000254:    4388        .C      BICS     r0,r0,r1
        0x00000256:    6260        `b      STR      r0,[r4,#0x24]
        0x00000258:    6a60        `j      LDR      r0,[r4,#0x24]
        0x0000025a:    4390        .C      BICS     r0,r0,r2
        0x0000025c:    6260        `b      STR      r0,[r4,#0x24]
        0x0000025e:    093e        >.      LSRS     r6,r7,#4
        0x00000260:    1eb6        ..      SUBS     r6,r6,#2
        0x00000262:    e026        &.      B        0x2b2 ; BaudRateCalculator + 122
        0x00000264:    4308        .C      ORRS     r0,r0,r1
        0x00000266:    6260        `b      STR      r0,[r4,#0x24]
        0x00000268:    6a60        `j      LDR      r0,[r4,#0x24]
        0x0000026a:    4310        .C      ORRS     r0,r0,r2
        0x0000026c:    6260        `b      STR      r0,[r4,#0x24]
        0x0000026e:    4b15        .K      LDR      r3,[pc,#84] ; [0x2c4] = 0xffff
        0x00000270:    1ebe        ..      SUBS     r6,r7,#2
        0x00000272:    429e        .B      CMP      r6,r3
        0x00000274:    dd1d        ..      BLE      0x2b2 ; BaudRateCalculator + 122
        0x00000276:    6a60        `j      LDR      r0,[r4,#0x24]
        0x00000278:    4308        .C      ORRS     r0,r0,r1
        0x0000027a:    6260        `b      STR      r0,[r4,#0x24]
        0x0000027c:    6a60        `j      LDR      r0,[r4,#0x24]
        0x0000027e:    4390        .C      BICS     r0,r0,r2
        0x00000280:    6260        `b      STR      r0,[r4,#0x24]
        0x00000282:    2508        .%      MOVS     r5,#8
        0x00000284:    4638        8F      MOV      r0,r7
        0x00000286:    1c69        i.      ADDS     r1,r5,#1
        0x00000288:    f7ffff4a    ..J.    BL       __aeabi_uidiv ; 0x120
        0x0000028c:    2903        .)      CMP      r1,#3
        0x0000028e:    d20d        ..      BCS      0x2ac ; BaudRateCalculator + 116
        0x00000290:    6a60        `j      LDR      r0,[r4,#0x24]
        0x00000292:    210f        .!      MOVS     r1,#0xf
        0x00000294:    0609        ..      LSLS     r1,r1,#24
        0x00000296:    4388        .C      BICS     r0,r0,r1
        0x00000298:    0729        ).      LSLS     r1,r5,#28
        0x0000029a:    0909        ..      LSRS     r1,r1,#4
        0x0000029c:    4308        .C      ORRS     r0,r0,r1
        0x0000029e:    6260        `b      STR      r0,[r4,#0x24]
        0x000002a0:    4638        8F      MOV      r0,r7
        0x000002a2:    1c69        i.      ADDS     r1,r5,#1
        0x000002a4:    f7ffff3c    ..<.    BL       __aeabi_uidiv ; 0x120
        0x000002a8:    1e86        ..      SUBS     r6,r0,#2
        0x000002aa:    e002        ..      B        0x2b2 ; BaudRateCalculator + 122
        0x000002ac:    1c6d        m.      ADDS     r5,r5,#1
        0x000002ae:    2d10        .-      CMP      r5,#0x10
        0x000002b0:    dbe8        ..      BLT      0x284 ; BaudRateCalculator + 76
        0x000002b2:    6a60        `j      LDR      r0,[r4,#0x24]
        0x000002b4:    b2b1        ..      UXTH     r1,r6
        0x000002b6:    0c00        ..      LSRS     r0,r0,#16
        0x000002b8:    0400        ..      LSLS     r0,r0,#16
        0x000002ba:    4308        .C      ORRS     r0,r0,r1
        0x000002bc:    6260        `b      STR      r0,[r4,#0x24]
        0x000002be:    bdf8        ..      POP      {r3-r7,pc}
    $d
        0x000002c0:    40050000    ...@    DCD    1074069504
        0x000002c4:    0000ffff    ....    DCD    65535
    $t
    i.DistMeasure
    DistMeasure
        0x000002c8:    b510        ..      PUSH     {r4,lr}
        0x000002ca:    f001f8eb    ....    BL       SR04_Trigger ; 0x14a4
        0x000002ce:    4810        .H      LDR      r0,[pc,#64] ; [0x310] = 0x9c40
        0x000002d0:    f000fa8e    ....    BL       DrvSYS_Delay ; 0x7f0
        0x000002d4:    4c0f        .L      LDR      r4,[pc,#60] ; [0x314] = 0x2000061c
        0x000002d6:    68a0        .h      LDR      r0,[r4,#8]
        0x000002d8:    2801        .(      CMP      r0,#1
        0x000002da:    d114        ..      BNE      0x306 ; DistMeasure + 62
        0x000002dc:    2000        .       MOVS     r0,#0
        0x000002de:    60a0        .`      STR      r0,[r4,#8]
        0x000002e0:    6860        `h      LDR      r0,[r4,#4]
        0x000002e2:    21aa        .!      MOVS     r1,#0xaa
        0x000002e4:    4348        HC      MULS     r0,r1,r0
        0x000002e6:    217d        }!      MOVS     r1,#0x7d
        0x000002e8:    00c9        ..      LSLS     r1,r1,#3
        0x000002ea:    f7ffff19    ....    BL       __aeabi_uidiv ; 0x120
        0x000002ee:    4602        .F      MOV      r2,r0
        0x000002f0:    6120         a      STR      r0,[r4,#0x10]
        0x000002f2:    4620         F      MOV      r0,r4
        0x000002f4:    a108        ..      ADR      r1,{pc}+0x24 ; 0x318
        0x000002f6:    3032        20      ADDS     r0,r0,#0x32
        0x000002f8:    f001fa66    ..f.    BL       __0sprintf$3 ; 0x17c8
        0x000002fc:    4621        !F      MOV      r1,r4
        0x000002fe:    312c        ,1      ADDS     r1,r1,#0x2c
        0x00000300:    2002        .       MOVS     r0,#2
        0x00000302:    f001fdb1    ....    BL       print_lcd ; 0x1e68
        0x00000306:    4807        .H      LDR      r0,[pc,#28] ; [0x324] = 0x2710
        0x00000308:    f000fa72    ..r.    BL       DrvSYS_Delay ; 0x7f0
        0x0000030c:    6920         i      LDR      r0,[r4,#0x10]
        0x0000030e:    bd10        ..      POP      {r4,pc}
    $d
        0x00000310:    00009c40    @...    DCD    40000
        0x00000314:    2000061c    ...     DCD    536872476
        0x00000318:    20642520     %d     DCD    543434016
        0x0000031c:    20206d6d    mm      DCD    538996077
        0x00000320:    00000000    ....    DCD    0
        0x00000324:    00002710    .'..    DCD    10000
    $t
    i.DrvGPIO_ClrBit
    DrvGPIO_ClrBit
        0x00000328:    2911        .)      CMP      r1,#0x11
        0x0000032a:    d301        ..      BCC      0x330 ; DrvGPIO_ClrBit + 8
        0x0000032c:    4805        .H      LDR      r0,[pc,#20] ; [0x344] = 0xffff8901
        0x0000032e:    4770        pG      BX       lr
        0x00000330:    4a05        .J      LDR      r2,[pc,#20] ; [0x348] = 0x50004000
        0x00000332:    0180        ..      LSLS     r0,r0,#6
        0x00000334:    1880        ..      ADDS     r0,r0,r2
        0x00000336:    6882        .h      LDR      r2,[r0,#8]
        0x00000338:    2301        .#      MOVS     r3,#1
        0x0000033a:    408b        .@      LSLS     r3,r3,r1
        0x0000033c:    439a        .C      BICS     r2,r2,r3
        0x0000033e:    6082        .`      STR      r2,[r0,#8]
        0x00000340:    2000        .       MOVS     r0,#0
        0x00000342:    4770        pG      BX       lr
    $d
        0x00000344:    ffff8901    ....    DCD    4294936833
        0x00000348:    50004000    .@.P    DCD    1342193664
    $t
    i.DrvGPIO_EnableDebounce
    DrvGPIO_EnableDebounce
        0x0000034c:    4a07        .J      LDR      r2,[pc,#28] ; [0x36c] = 0x50004014
        0x0000034e:    0180        ..      LSLS     r0,r0,#6
        0x00000350:    1880        ..      ADDS     r0,r0,r2
        0x00000352:    6802        .h      LDR      r2,[r0,#0]
        0x00000354:    2301        .#      MOVS     r3,#1
        0x00000356:    408b        .@      LSLS     r3,r3,r1
        0x00000358:    431a        .C      ORRS     r2,r2,r3
        0x0000035a:    6002        .`      STR      r2,[r0,#0]
        0x0000035c:    4904        .I      LDR      r1,[pc,#16] ; [0x370] = 0x50004180
        0x0000035e:    6808        .h      LDR      r0,[r1,#0]
        0x00000360:    2220         "      MOVS     r2,#0x20
        0x00000362:    4310        .C      ORRS     r0,r0,r2
        0x00000364:    6008        .`      STR      r0,[r1,#0]
        0x00000366:    2000        .       MOVS     r0,#0
        0x00000368:    4770        pG      BX       lr
    $d
        0x0000036a:    0000        ..      DCW    0
        0x0000036c:    50004014    .@.P    DCD    1342193684
        0x00000370:    50004180    .A.P    DCD    1342194048
    $t
    i.DrvGPIO_GetBit
    DrvGPIO_GetBit
        0x00000374:    2911        .)      CMP      r1,#0x11
        0x00000376:    d301        ..      BCC      0x37c ; DrvGPIO_GetBit + 8
        0x00000378:    4804        .H      LDR      r0,[pc,#16] ; [0x38c] = 0xffff8901
        0x0000037a:    4770        pG      BX       lr
        0x0000037c:    4a04        .J      LDR      r2,[pc,#16] ; [0x390] = 0x50004010
        0x0000037e:    0180        ..      LSLS     r0,r0,#6
        0x00000380:    1880        ..      ADDS     r0,r0,r2
        0x00000382:    6800        .h      LDR      r0,[r0,#0]
        0x00000384:    40c8        .@      LSRS     r0,r0,r1
        0x00000386:    07c0        ..      LSLS     r0,r0,#31
        0x00000388:    0fc0        ..      LSRS     r0,r0,#31
        0x0000038a:    4770        pG      BX       lr
    $d
        0x0000038c:    ffff8901    ....    DCD    4294936833
        0x00000390:    50004010    .@.P    DCD    1342193680
    $t
    i.DrvGPIO_InitFunction
    DrvGPIO_InitFunction
        0x00000394:    b5f0        ..      PUSH     {r4-r7,lr}
        0x00000396:    2501        .%      MOVS     r5,#1
        0x00000398:    4601        .F      MOV      r1,r0
        0x0000039a:    3928        (9      SUBS     r1,r1,#0x28
        0x0000039c:    462e        .F      MOV      r6,r5
        0x0000039e:    408e        .@      LSLS     r6,r6,r1
        0x000003a0:    2105        .!      MOVS     r1,#5
        0x000003a2:    240f        .$      MOVS     r4,#0xf
        0x000003a4:    2704        .'      MOVS     r7,#4
        0x000003a6:    0709        ..      LSLS     r1,r1,#28
        0x000003a8:    4ae0        .J      LDR      r2,[pc,#896] ; [0x72c] = 0x50000040
        0x000003aa:    4603        .F      MOV      r3,r0
        0x000003ac:    f001fa20    .. .    BL       __ARM_common_switch8 ; 0x17f0
    $d
        0x000003b0:    2f26203e    > &/    DCD    791027774
        0x000003b4:    4c493d35    5=IL    DCD    1279868213
        0x000003b8:    645c554c    LU\d    DCD    1683772748
        0x000003bc:    7b756d67    gmu{    DCD    2071293287
        0x000003c0:    8f8b867f    ....    DCD    2408285823
        0x000003c4:    a19e9b97    ....    DCD    2711526295
        0x000003c8:    a7a7a7ac    ....    DCD    2812782508
        0x000003cc:    a4a7a7a7    ....    DCD    2762450855
        0x000003d0:    bfbbb6b2    ....    DCD    3216750258
        0x000003d4:    e0d8d0c7    ....    DCD    3772305607
        0x000003d8:    efeff9f2    ....    DCD    4025481714
        0x000003dc:    efefefef    ....    DCD    4025479151
        0x000003e0:    ebecedee    ....    DCD    3958173166
        0x000003e4:    ecededea    ....    DCD    3975015914
        0x000003e8:    eaebebec    ....    DCD    3941329900
        0x000003ec:    e7e8e9ea    ....    DCD    3890801130
    $t
        0x000003f0:    2000        .       MOVS     r0,#0
        0x000003f2:    6308        .c      STR      r0,[r1,#0x30]
        0x000003f4:    6348        Hc      STR      r0,[r1,#0x34]
        0x000003f6:    6388        .c      STR      r0,[r1,#0x38]
        0x000003f8:    63c8        .c      STR      r0,[r1,#0x3c]
        0x000003fa:    e149        I.      B        0x690 ; DrvGPIO_InitFunction + 764
        0x000003fc:    6b48        Hk      LDR      r0,[r1,#0x34]
        0x000003fe:    2301        .#      MOVS     r3,#1
        0x00000400:    031b        ..      LSLS     r3,r3,#12
        0x00000402:    4318        .C      ORRS     r0,r0,r3
        0x00000404:    6348        Hc      STR      r0,[r1,#0x34]
        0x00000406:    6910        .i      LDR      r0,[r2,#0x10]
        0x00000408:    1099        ..      ASRS     r1,r3,#2
        0x0000040a:    4308        .C      ORRS     r0,r0,r1
        0x0000040c:    e110        ..      B        0x630 ; DrvGPIO_InitFunction + 668
        0x0000040e:    6b08        .k      LDR      r0,[r1,#0x30]
        0x00000410:    2203        ."      MOVS     r2,#3
        0x00000412:    0212        ..      LSLS     r2,r2,#8
        0x00000414:    4310        .C      ORRS     r0,r0,r2
        0x00000416:    6308        .c      STR      r0,[r1,#0x30]
        0x00000418:    e183        ..      B        0x722 ; DrvGPIO_InitFunction + 910
        0x0000041a:    6b08        .k      LDR      r0,[r1,#0x30]
        0x0000041c:    2303        .#      MOVS     r3,#3
        0x0000041e:    029b        ..      LSLS     r3,r3,#10
        0x00000420:    e0f3        ..      B        0x60a ; DrvGPIO_InitFunction + 630
        0x00000422:    6910        .i      LDR      r0,[r2,#0x10]
        0x00000424:    2101        .!      MOVS     r1,#1
        0x00000426:    02c9        ..      LSLS     r1,r1,#11
        0x00000428:    e0f4        ..      B        0x614 ; DrvGPIO_InitFunction + 640
        0x0000042a:    6b88        .k      LDR      r0,[r1,#0x38]
        0x0000042c:    4320         C      ORRS     r0,r0,r4
        0x0000042e:    6388        .c      STR      r0,[r1,#0x38]
        0x00000430:    6b0b        .k      LDR      r3,[r1,#0x30]
        0x00000432:    2001        .       MOVS     r0,#1
        0x00000434:    03c0        ..      LSLS     r0,r0,#15
        0x00000436:    4303        .C      ORRS     r3,r3,r0
        0x00000438:    630b        .c      STR      r3,[r1,#0x30]
        0x0000043a:    6910        .i      LDR      r0,[r2,#0x10]
        0x0000043c:    211f        .!      MOVS     r1,#0x1f
        0x0000043e:    0149        I.      LSLS     r1,r1,#5
        0x00000440:    e0b5        ..      B        0x5ae ; DrvGPIO_InitFunction + 538
        0x00000442:    6bc8        .k      LDR      r0,[r1,#0x3c]
        0x00000444:    22c0        ."      MOVS     r2,#0xc0
        0x00000446:    e0d9        ..      B        0x5fc ; DrvGPIO_InitFunction + 616
        0x00000448:    2806        .(      CMP      r0,#6
        0x0000044a:    d000        ..      BEQ      0x44e ; DrvGPIO_InitFunction + 186
        0x0000044c:    200e        .       MOVS     r0,#0xe
        0x0000044e:    6b8c        .k      LDR      r4,[r1,#0x38]
        0x00000450:    2303        .#      MOVS     r3,#3
        0x00000452:    4083        .@      LSLS     r3,r3,r0
        0x00000454:    431c        .C      ORRS     r4,r4,r3
        0x00000456:    638c        .c      STR      r4,[r1,#0x38]
        0x00000458:    e7e3        ..      B        0x422 ; DrvGPIO_InitFunction + 142
        0x0000045a:    6b88        .k      LDR      r0,[r1,#0x38]
        0x0000045c:    4320         C      ORRS     r0,r0,r4
        0x0000045e:    6388        .c      STR      r0,[r1,#0x38]
        0x00000460:    6910        .i      LDR      r0,[r2,#0x10]
        0x00000462:    21ff        .!      MOVS     r1,#0xff
        0x00000464:    31e1        .1      ADDS     r1,r1,#0xe1
        0x00000466:    e0d5        ..      B        0x614 ; DrvGPIO_InitFunction + 640
        0x00000468:    6b48        Hk      LDR      r0,[r1,#0x34]
        0x0000046a:    2301        .#      MOVS     r3,#1
        0x0000046c:    029b        ..      LSLS     r3,r3,#10
        0x0000046e:    4318        .C      ORRS     r0,r0,r3
        0x00000470:    6348        Hc      STR      r0,[r1,#0x34]
        0x00000472:    6910        .i      LDR      r0,[r2,#0x10]
        0x00000474:    4328        (C      ORRS     r0,r0,r5
        0x00000476:    e0ce        ..      B        0x616 ; DrvGPIO_InitFunction + 642
        0x00000478:    6b88        .k      LDR      r0,[r1,#0x38]
        0x0000047a:    2230        0"      MOVS     r2,#0x30
        0x0000047c:    e010        ..      B        0x4a0 ; DrvGPIO_InitFunction + 268
        0x0000047e:    6b8b        .k      LDR      r3,[r1,#0x38]
        0x00000480:    200f        .       MOVS     r0,#0xf
        0x00000482:    0200        ..      LSLS     r0,r0,#8
        0x00000484:    4303        .C      ORRS     r3,r3,r0
        0x00000486:    638b        .c      STR      r3,[r1,#0x38]
        0x00000488:    e7cb        ..      B        0x422 ; DrvGPIO_InitFunction + 142
        0x0000048a:    6b48        Hk      LDR      r0,[r1,#0x34]
        0x0000048c:    2301        .#      MOVS     r3,#1
        0x0000048e:    025b        [.      LSLS     r3,r3,#9
        0x00000490:    4318        .C      ORRS     r0,r0,r3
        0x00000492:    6348        Hc      STR      r0,[r1,#0x34]
        0x00000494:    6911        .i      LDR      r1,[r2,#0x10]
        0x00000496:    2002        .       MOVS     r0,#2
        0x00000498:    e0ea        ..      B        0x670 ; DrvGPIO_InitFunction + 732
        0x0000049a:    6b88        .k      LDR      r0,[r1,#0x38]
        0x0000049c:    2203        ."      MOVS     r2,#3
        0x0000049e:    0312        ..      LSLS     r2,r2,#12
        0x000004a0:    4310        .C      ORRS     r0,r0,r2
        0x000004a2:    6388        .c      STR      r0,[r1,#0x38]
        0x000004a4:    e13d        =.      B        0x722 ; DrvGPIO_InitFunction + 910
        0x000004a6:    6bc8        .k      LDR      r0,[r1,#0x3c]
        0x000004a8:    4320         C      ORRS     r0,r0,r4
        0x000004aa:    63c8        .c      STR      r0,[r1,#0x3c]
        0x000004ac:    e139        9.      B        0x722 ; DrvGPIO_InitFunction + 910
        0x000004ae:    6b08        .k      LDR      r0,[r1,#0x30]
        0x000004b0:    2380        .#      MOVS     r3,#0x80
        0x000004b2:    4318        .C      ORRS     r0,r0,r3
        0x000004b4:    6308        .c      STR      r0,[r1,#0x30]
        0x000004b6:    6910        .i      LDR      r0,[r2,#0x10]
        0x000004b8:    4338        8C      ORRS     r0,r0,r7
        0x000004ba:    e0b9        ..      B        0x630 ; DrvGPIO_InitFunction + 668
        0x000004bc:    6bca        .k      LDR      r2,[r1,#0x3c]
        0x000004be:    2030        0       MOVS     r0,#0x30
        0x000004c0:    4302        .C      ORRS     r2,r2,r0
        0x000004c2:    63ca        .c      STR      r2,[r1,#0x3c]
        0x000004c4:    e12d        -.      B        0x722 ; DrvGPIO_InitFunction + 910
        0x000004c6:    6bc8        .k      LDR      r0,[r1,#0x3c]
        0x000004c8:    220f        ."      MOVS     r2,#0xf
        0x000004ca:    0212        ..      LSLS     r2,r2,#8
        0x000004cc:    e096        ..      B        0x5fc ; DrvGPIO_InitFunction + 616
        0x000004ce:    6b48        Hk      LDR      r0,[r1,#0x34]
        0x000004d0:    2301        .#      MOVS     r3,#1
        0x000004d2:    039b        ..      LSLS     r3,r3,#14
        0x000004d4:    4318        .C      ORRS     r0,r0,r3
        0x000004d6:    6348        Hc      STR      r0,[r1,#0x34]
        0x000004d8:    6910        .i      LDR      r0,[r2,#0x10]
        0x000004da:    2108        .!      MOVS     r1,#8
        0x000004dc:    e067        g.      B        0x5ae ; DrvGPIO_InitFunction + 538
        0x000004de:    6bc8        .k      LDR      r0,[r1,#0x3c]
        0x000004e0:    2203        ."      MOVS     r2,#3
        0x000004e2:    0312        ..      LSLS     r2,r2,#12
        0x000004e4:    e08a        ..      B        0x5fc ; DrvGPIO_InitFunction + 616
        0x000004e6:    6b88        .k      LDR      r0,[r1,#0x38]
        0x000004e8:    4320         C      ORRS     r0,r0,r4
        0x000004ea:    e7da        ..      B        0x4a2 ; DrvGPIO_InitFunction + 270
        0x000004ec:    6bc8        .k      LDR      r0,[r1,#0x3c]
        0x000004ee:    2202        ."      MOVS     r2,#2
        0x000004f0:    e084        ..      B        0x5fc ; DrvGPIO_InitFunction + 616
        0x000004f2:    6bc8        .k      LDR      r0,[r1,#0x3c]
        0x000004f4:    4338        8C      ORRS     r0,r0,r7
        0x000004f6:    e7d8        ..      B        0x4aa ; DrvGPIO_InitFunction + 278
        0x000004f8:    6913        .i      LDR      r3,[r2,#0x10]
        0x000004fa:    43bb        .C      BICS     r3,r3,r7
        0x000004fc:    6113        .a      STR      r3,[r2,#0x10]
        0x000004fe:    6913        .i      LDR      r3,[r2,#0x10]
        0x00000500:    2401        .$      MOVS     r4,#1
        0x00000502:    02e4        ..      LSLS     r4,r4,#11
        0x00000504:    43a3        .C      BICS     r3,r3,r4
        0x00000506:    6113        .a      STR      r3,[r2,#0x10]
        0x00000508:    6b0a        .k      LDR      r2,[r1,#0x30]
        0x0000050a:    3817        .8      SUBS     r0,r0,#0x17
        0x0000050c:    4085        .@      LSLS     r5,r5,r0
        0x0000050e:    432a        *C      ORRS     r2,r2,r5
        0x00000510:    630a        .c      STR      r2,[r1,#0x30]
        0x00000512:    e106        ..      B        0x722 ; DrvGPIO_InitFunction + 910
        0x00000514:    6913        .i      LDR      r3,[r2,#0x10]
        0x00000516:    2408        .$      MOVS     r4,#8
        0x00000518:    43a3        .C      BICS     r3,r3,r4
        0x0000051a:    6113        .a      STR      r3,[r2,#0x10]
        0x0000051c:    6b4a        Jk      LDR      r2,[r1,#0x34]
        0x0000051e:    3811        .8      SUBS     r0,r0,#0x11
        0x00000520:    4085        .@      LSLS     r5,r5,r0
        0x00000522:    432a        *C      ORRS     r2,r2,r5
        0x00000524:    e05a        Z.      B        0x5dc ; DrvGPIO_InitFunction + 584
        0x00000526:    6b48        Hk      LDR      r0,[r1,#0x34]
        0x00000528:    22ff        ."      MOVS     r2,#0xff
        0x0000052a:    3201        .2      ADDS     r2,#1
        0x0000052c:    e0f7        ..      B        0x71e ; DrvGPIO_InitFunction + 906
        0x0000052e:    6b48        Hk      LDR      r0,[r1,#0x34]
        0x00000530:    2301        .#      MOVS     r3,#1
        0x00000532:    025b        [.      LSLS     r3,r3,#9
        0x00000534:    4318        .C      ORRS     r0,r0,r3
        0x00000536:    6348        Hc      STR      r0,[r1,#0x34]
        0x00000538:    6910        .i      LDR      r0,[r2,#0x10]
        0x0000053a:    2102        .!      MOVS     r1,#2
        0x0000053c:    e06a        j.      B        0x614 ; DrvGPIO_InitFunction + 640
        0x0000053e:    6b48        Hk      LDR      r0,[r1,#0x34]
        0x00000540:    2301        .#      MOVS     r3,#1
        0x00000542:    029b        ..      LSLS     r3,r3,#10
        0x00000544:    4318        .C      ORRS     r0,r0,r3
        0x00000546:    6348        Hc      STR      r0,[r1,#0x34]
        0x00000548:    6910        .i      LDR      r0,[r2,#0x10]
        0x0000054a:    0840        @.      LSRS     r0,r0,#1
        0x0000054c:    0040        @.      LSLS     r0,r0,#1
        0x0000054e:    e062        b.      B        0x616 ; DrvGPIO_InitFunction + 642
        0x00000550:    6b48        Hk      LDR      r0,[r1,#0x34]
        0x00000552:    2301        .#      MOVS     r3,#1
        0x00000554:    02db        ..      LSLS     r3,r3,#11
        0x00000556:    4318        .C      ORRS     r0,r0,r3
        0x00000558:    6348        Hc      STR      r0,[r1,#0x34]
        0x0000055a:    6910        .i      LDR      r0,[r2,#0x10]
        0x0000055c:    2110        .!      MOVS     r1,#0x10
        0x0000055e:    e059        Y.      B        0x614 ; DrvGPIO_InitFunction + 640
        0x00000560:    6b48        Hk      LDR      r0,[r1,#0x34]
        0x00000562:    2301        .#      MOVS     r3,#1
        0x00000564:    03db        ..      LSLS     r3,r3,#15
        0x00000566:    4318        .C      ORRS     r0,r0,r3
        0x00000568:    6348        Hc      STR      r0,[r1,#0x34]
        0x0000056a:    6910        .i      LDR      r0,[r2,#0x10]
        0x0000056c:    0259        Y.      LSLS     r1,r3,#9
        0x0000056e:    e01e        ..      B        0x5ae ; DrvGPIO_InitFunction + 538
        0x00000570:    6810        .h      LDR      r0,[r2,#0]
        0x00000572:    2120         !      MOVS     r1,#0x20
        0x00000574:    4308        .C      ORRS     r0,r0,r1
        0x00000576:    6010        .`      STR      r0,[r2,#0]
        0x00000578:    6910        .i      LDR      r0,[r2,#0x10]
        0x0000057a:    0509        ..      LSLS     r1,r1,#20
        0x0000057c:    e017        ..      B        0x5ae ; DrvGPIO_InitFunction + 538
        0x0000057e:    e0d2        ..      B        0x726 ; DrvGPIO_InitFunction + 914
        0x00000580:    e08d        ..      B        0x69e ; DrvGPIO_InitFunction + 778
        0x00000582:    e09d        ..      B        0x6c0 ; DrvGPIO_InitFunction + 812
        0x00000584:    e07b        {.      B        0x67e ; DrvGPIO_InitFunction + 746
        0x00000586:    e05e        ^.      B        0x646 ; DrvGPIO_InitFunction + 690
        0x00000588:    e047        G.      B        0x61a ; DrvGPIO_InitFunction + 646
        0x0000058a:    e039        9.      B        0x600 ; DrvGPIO_InitFunction + 620
        0x0000058c:    e033        3.      B        0x5f6 ; DrvGPIO_InitFunction + 610
        0x0000058e:    e010        ..      B        0x5b2 ; DrvGPIO_InitFunction + 542
        0x00000590:    e007        ..      B        0x5a2 ; DrvGPIO_InitFunction + 526
        0x00000592:    e7ff        ..      B        0x594 ; DrvGPIO_InitFunction + 512
        0x00000594:    6b48        Hk      LDR      r0,[r1,#0x34]
        0x00000596:    4338        8C      ORRS     r0,r0,r7
        0x00000598:    6348        Hc      STR      r0,[r1,#0x34]
        0x0000059a:    6910        .i      LDR      r0,[r2,#0x10]
        0x0000059c:    2101        .!      MOVS     r1,#1
        0x0000059e:    0689        ..      LSLS     r1,r1,#26
        0x000005a0:    e005        ..      B        0x5ae ; DrvGPIO_InitFunction + 538
        0x000005a2:    6b48        Hk      LDR      r0,[r1,#0x34]
        0x000005a4:    2308        .#      MOVS     r3,#8
        0x000005a6:    4318        .C      ORRS     r0,r0,r3
        0x000005a8:    6348        Hc      STR      r0,[r1,#0x34]
        0x000005aa:    6910        .i      LDR      r0,[r2,#0x10]
        0x000005ac:    0619        ..      LSLS     r1,r3,#24
        0x000005ae:    4308        .C      ORRS     r0,r0,r1
        0x000005b0:    e031        1.      B        0x616 ; DrvGPIO_InitFunction + 642
        0x000005b2:    4603        .F      MOV      r3,r0
        0x000005b4:    3b29        );      SUBS     r3,r3,#0x29
        0x000005b6:    2b02        .+      CMP      r3,#2
        0x000005b8:    d801        ..      BHI      0x5be ; DrvGPIO_InitFunction + 554
        0x000005ba:    2300        .#      MOVS     r3,#0
        0x000005bc:    e000        ..      B        0x5c0 ; DrvGPIO_InitFunction + 556
        0x000005be:    2304        .#      MOVS     r3,#4
        0x000005c0:    2829        )(      CMP      r0,#0x29
        0x000005c2:    d001        ..      BEQ      0x5c8 ; DrvGPIO_InitFunction + 564
        0x000005c4:    282c        ,(      CMP      r0,#0x2c
        0x000005c6:    d101        ..      BNE      0x5cc ; DrvGPIO_InitFunction + 568
        0x000005c8:    6b48        Hk      LDR      r0,[r1,#0x34]
        0x000005ca:    e010        ..      B        0x5ee ; DrvGPIO_InitFunction + 602
        0x000005cc:    282a        *(      CMP      r0,#0x2a
        0x000005ce:    d001        ..      BEQ      0x5d4 ; DrvGPIO_InitFunction + 576
        0x000005d0:    282d        -(      CMP      r0,#0x2d
        0x000005d2:    d105        ..      BNE      0x5e0 ; DrvGPIO_InitFunction + 588
        0x000005d4:    6b4a        Jk      LDR      r2,[r1,#0x34]
        0x000005d6:    2003        .       MOVS     r0,#3
        0x000005d8:    4098        .@      LSLS     r0,r0,r3
        0x000005da:    4302        .C      ORRS     r2,r2,r0
        0x000005dc:    634a        Jc      STR      r2,[r1,#0x34]
        0x000005de:    e0a0        ..      B        0x722 ; DrvGPIO_InitFunction + 910
        0x000005e0:    282b        +(      CMP      r0,#0x2b
        0x000005e2:    d001        ..      BEQ      0x5e8 ; DrvGPIO_InitFunction + 596
        0x000005e4:    282e        .(      CMP      r0,#0x2e
        0x000005e6:    d194        ..      BNE      0x512 ; DrvGPIO_InitFunction + 382
        0x000005e8:    6b48        Hk      LDR      r0,[r1,#0x34]
        0x000005ea:    1c9b        ..      ADDS     r3,r3,#2
        0x000005ec:    2403        .$      MOVS     r4,#3
        0x000005ee:    409c        .@      LSLS     r4,r4,r3
        0x000005f0:    4320         C      ORRS     r0,r0,r4
        0x000005f2:    6348        Hc      STR      r0,[r1,#0x34]
        0x000005f4:    e715        ..      B        0x422 ; DrvGPIO_InitFunction + 142
        0x000005f6:    6bc8        .k      LDR      r0,[r1,#0x3c]
        0x000005f8:    2203        ."      MOVS     r2,#3
        0x000005fa:    0392        ..      LSLS     r2,r2,#14
        0x000005fc:    4310        .C      ORRS     r0,r0,r2
        0x000005fe:    e754        T.      B        0x4aa ; DrvGPIO_InitFunction + 278
        0x00000600:    2830        0(      CMP      r0,#0x30
        0x00000602:    6b08        .k      LDR      r0,[r1,#0x30]
        0x00000604:    d103        ..      BNE      0x60e ; DrvGPIO_InitFunction + 634
        0x00000606:    2303        .#      MOVS     r3,#3
        0x00000608:    031b        ..      LSLS     r3,r3,#12
        0x0000060a:    4318        .C      ORRS     r0,r0,r3
        0x0000060c:    e000        ..      B        0x610 ; DrvGPIO_InitFunction + 636
        0x0000060e:    4330        0C      ORRS     r0,r0,r6
        0x00000610:    6308        .c      STR      r0,[r1,#0x30]
        0x00000612:    e706        ..      B        0x422 ; DrvGPIO_InitFunction + 142
        0x00000614:    4388        .C      BICS     r0,r0,r1
        0x00000616:    6110        .a      STR      r0,[r2,#0x10]
        0x00000618:    e083        ..      B        0x722 ; DrvGPIO_InitFunction + 910
        0x0000061a:    2831        1(      CMP      r0,#0x31
        0x0000061c:    d10a        ..      BNE      0x634 ; DrvGPIO_InitFunction + 672
        0x0000061e:    6b08        .k      LDR      r0,[r1,#0x30]
        0x00000620:    2303        .#      MOVS     r3,#3
        0x00000622:    039b        ..      LSLS     r3,r3,#14
        0x00000624:    4318        .C      ORRS     r0,r0,r3
        0x00000626:    6308        .c      STR      r0,[r1,#0x30]
        0x00000628:    6910        .i      LDR      r0,[r2,#0x10]
        0x0000062a:    2101        .!      MOVS     r1,#1
        0x0000062c:    0249        I.      LSLS     r1,r1,#9
        0x0000062e:    4388        .C      BICS     r0,r0,r1
        0x00000630:    6110        .a      STR      r0,[r2,#0x10]
        0x00000632:    e6f6        ..      B        0x422 ; DrvGPIO_InitFunction + 142
        0x00000634:    6b0b        .k      LDR      r3,[r1,#0x30]
        0x00000636:    4333        3C      ORRS     r3,r3,r6
        0x00000638:    630b        .c      STR      r3,[r1,#0x30]
        0x0000063a:    2836        6(      CMP      r0,#0x36
        0x0000063c:    d0da        ..      BEQ      0x5f4 ; DrvGPIO_InitFunction + 608
        0x0000063e:    6910        .i      LDR      r0,[r2,#0x10]
        0x00000640:    2101        .!      MOVS     r1,#1
        0x00000642:    0249        I.      LSLS     r1,r1,#9
        0x00000644:    e7e6        ..      B        0x614 ; DrvGPIO_InitFunction + 640
        0x00000646:    2832        2(      CMP      r0,#0x32
        0x00000648:    d109        ..      BNE      0x65e ; DrvGPIO_InitFunction + 714
        0x0000064a:    6b48        Hk      LDR      r0,[r1,#0x34]
        0x0000064c:    2301        .#      MOVS     r3,#1
        0x0000064e:    02db        ..      LSLS     r3,r3,#11
        0x00000650:    4318        .C      ORRS     r0,r0,r3
        0x00000652:    6348        Hc      STR      r0,[r1,#0x34]
        0x00000654:    6910        .i      LDR      r0,[r2,#0x10]
        0x00000656:    2110        .!      MOVS     r1,#0x10
        0x00000658:    4308        .C      ORRS     r0,r0,r1
        0x0000065a:    6110        .a      STR      r0,[r2,#0x10]
        0x0000065c:    e00b        ..      B        0x676 ; DrvGPIO_InitFunction + 738
        0x0000065e:    2838        8(      CMP      r0,#0x38
        0x00000660:    d109        ..      BNE      0x676 ; DrvGPIO_InitFunction + 738
        0x00000662:    6b48        Hk      LDR      r0,[r1,#0x34]
        0x00000664:    2301        .#      MOVS     r3,#1
        0x00000666:    02db        ..      LSLS     r3,r3,#11
        0x00000668:    4318        .C      ORRS     r0,r0,r3
        0x0000066a:    6348        Hc      STR      r0,[r1,#0x34]
        0x0000066c:    6911        .i      LDR      r1,[r2,#0x10]
        0x0000066e:    2010        .       MOVS     r0,#0x10
        0x00000670:    4301        .C      ORRS     r1,r1,r0
        0x00000672:    6111        .a      STR      r1,[r2,#0x10]
        0x00000674:    e055        U.      B        0x722 ; DrvGPIO_InitFunction + 910
        0x00000676:    6810        .h      LDR      r0,[r2,#0]
        0x00000678:    2120         !      MOVS     r1,#0x20
        0x0000067a:    4308        .C      ORRS     r0,r0,r1
        0x0000067c:    e008        ..      B        0x690 ; DrvGPIO_InitFunction + 764
        0x0000067e:    2833        3(      CMP      r0,#0x33
        0x00000680:    d102        ..      BNE      0x688 ; DrvGPIO_InitFunction + 756
        0x00000682:    6811        .h      LDR      r1,[r2,#0]
        0x00000684:    2003        .       MOVS     r0,#3
        0x00000686:    e007        ..      B        0x698 ; DrvGPIO_InitFunction + 772
        0x00000688:    283a        :(      CMP      r0,#0x3a
        0x0000068a:    d103        ..      BNE      0x694 ; DrvGPIO_InitFunction + 768
        0x0000068c:    6810        .h      LDR      r0,[r2,#0]
        0x0000068e:    4328        (C      ORRS     r0,r0,r5
        0x00000690:    6010        .`      STR      r0,[r2,#0]
        0x00000692:    e046        F.      B        0x722 ; DrvGPIO_InitFunction + 910
        0x00000694:    6811        .h      LDR      r1,[r2,#0]
        0x00000696:    2002        .       MOVS     r0,#2
        0x00000698:    4301        .C      ORRS     r1,r1,r0
        0x0000069a:    6011        .`      STR      r1,[r2,#0]
        0x0000069c:    e041        A.      B        0x722 ; DrvGPIO_InitFunction + 910
        0x0000069e:    6b48        Hk      LDR      r0,[r1,#0x34]
        0x000006a0:    230c        .#      MOVS     r3,#0xc
        0x000006a2:    4318        .C      ORRS     r0,r0,r3
        0x000006a4:    6348        Hc      STR      r0,[r1,#0x34]
        0x000006a6:    6910        .i      LDR      r0,[r2,#0x10]
        0x000006a8:    02db        ..      LSLS     r3,r3,#11
        0x000006aa:    4318        .C      ORRS     r0,r0,r3
        0x000006ac:    6110        .a      STR      r0,[r2,#0x10]
        0x000006ae:    6b08        .k      LDR      r0,[r1,#0x30]
        0x000006b0:    4b1f        .K      LDR      r3,[pc,#124] ; [0x730] = 0x703e
        0x000006b2:    4318        .C      ORRS     r0,r0,r3
        0x000006b4:    6308        .c      STR      r0,[r1,#0x30]
        0x000006b6:    6910        .i      LDR      r0,[r2,#0x10]
        0x000006b8:    23ff        .#      MOVS     r3,#0xff
        0x000006ba:    041b        ..      LSLS     r3,r3,#16
        0x000006bc:    4318        .C      ORRS     r0,r0,r3
        0x000006be:    e012        ..      B        0x6e6 ; DrvGPIO_InitFunction + 850
        0x000006c0:    283c        <(      CMP      r0,#0x3c
        0x000006c2:    d111        ..      BNE      0x6e8 ; DrvGPIO_InitFunction + 852
        0x000006c4:    6b48        Hk      LDR      r0,[r1,#0x34]
        0x000006c6:    230c        .#      MOVS     r3,#0xc
        0x000006c8:    4398        .C      BICS     r0,r0,r3
        0x000006ca:    6348        Hc      STR      r0,[r1,#0x34]
        0x000006cc:    6910        .i      LDR      r0,[r2,#0x10]
        0x000006ce:    02db        ..      LSLS     r3,r3,#11
        0x000006d0:    4398        .C      BICS     r0,r0,r3
        0x000006d2:    6110        .a      STR      r0,[r2,#0x10]
        0x000006d4:    6b08        .k      LDR      r0,[r1,#0x30]
        0x000006d6:    4b16        .K      LDR      r3,[pc,#88] ; [0x730] = 0x703e
        0x000006d8:    43db        .C      MVNS     r3,r3
        0x000006da:    4018        .@      ANDS     r0,r0,r3
        0x000006dc:    6308        .c      STR      r0,[r1,#0x30]
        0x000006de:    6910        .i      LDR      r0,[r2,#0x10]
        0x000006e0:    23ff        .#      MOVS     r3,#0xff
        0x000006e2:    041b        ..      LSLS     r3,r3,#16
        0x000006e4:    4398        .C      BICS     r0,r0,r3
        0x000006e6:    6110        .a      STR      r0,[r2,#0x10]
        0x000006e8:    6910        .i      LDR      r0,[r2,#0x10]
        0x000006ea:    2303        .#      MOVS     r3,#3
        0x000006ec:    02db        ..      LSLS     r3,r3,#11
        0x000006ee:    4318        .C      ORRS     r0,r0,r3
        0x000006f0:    6110        .a      STR      r0,[r2,#0x10]
        0x000006f2:    6b88        .k      LDR      r0,[r1,#0x38]
        0x000006f4:    22ff        ."      MOVS     r2,#0xff
        0x000006f6:    3201        .2      ADDS     r2,#1
        0x000006f8:    4310        .C      ORRS     r0,r0,r2
        0x000006fa:    6388        .c      STR      r0,[r1,#0x38]
        0x000006fc:    6b08        .k      LDR      r0,[r1,#0x30]
        0x000006fe:    105a        Z.      ASRS     r2,r3,#1
        0x00000700:    4310        .C      ORRS     r0,r0,r2
        0x00000702:    6308        .c      STR      r0,[r1,#0x30]
        0x00000704:    6b4a        Jk      LDR      r2,[r1,#0x34]
        0x00000706:    20c0        .       MOVS     r0,#0xc0
        0x00000708:    4302        .C      ORRS     r2,r2,r0
        0x0000070a:    634a        Jc      STR      r2,[r1,#0x34]
        0x0000070c:    6b0a        .k      LDR      r2,[r1,#0x30]
        0x0000070e:    4302        .C      ORRS     r2,r2,r0
        0x00000710:    630a        .c      STR      r2,[r1,#0x30]
        0x00000712:    6b88        .k      LDR      r0,[r1,#0x38]
        0x00000714:    4a07        .J      LDR      r2,[pc,#28] ; [0x734] = 0xc0c0
        0x00000716:    4310        .C      ORRS     r0,r0,r2
        0x00000718:    6388        .c      STR      r0,[r1,#0x38]
        0x0000071a:    6b48        Hk      LDR      r0,[r1,#0x34]
        0x0000071c:    005a        Z.      LSLS     r2,r3,#1
        0x0000071e:    4310        .C      ORRS     r0,r0,r2
        0x00000720:    6348        Hc      STR      r0,[r1,#0x34]
        0x00000722:    2000        .       MOVS     r0,#0
        0x00000724:    bdf0        ..      POP      {r4-r7,pc}
        0x00000726:    4804        .H      LDR      r0,[pc,#16] ; [0x738] = 0xffff8901
        0x00000728:    bdf0        ..      POP      {r4-r7,pc}
    $d
        0x0000072a:    0000        ..      DCW    0
        0x0000072c:    50000040    @..P    DCD    1342177344
        0x00000730:    0000703e    >p..    DCD    28734
        0x00000734:    0000c0c0    ....    DCD    49344
        0x00000738:    ffff8901    ....    DCD    4294936833
    $t
    i.DrvGPIO_Open
    DrvGPIO_Open
        0x0000073c:    4603        .F      MOV      r3,r0
        0x0000073e:    b510        ..      PUSH     {r4,lr}
        0x00000740:    4813        .H      LDR      r0,[pc,#76] ; [0x790] = 0xffff8901
        0x00000742:    2911        .)      CMP      r1,#0x11
        0x00000744:    d222        ".      BCS      0x78c ; DrvGPIO_Open + 80
        0x00000746:    4c13        .L      LDR      r4,[pc,#76] ; [0x794] = 0x50004000
        0x00000748:    019b        ..      LSLS     r3,r3,#6
        0x0000074a:    191b        ..      ADDS     r3,r3,r4
        0x0000074c:    2403        .$      MOVS     r4,#3
        0x0000074e:    0049        I.      LSLS     r1,r1,#1
        0x00000750:    408c        .@      LSLS     r4,r4,r1
        0x00000752:    2a00        .*      CMP      r2,#0
        0x00000754:    d003        ..      BEQ      0x75e ; DrvGPIO_Open + 34
        0x00000756:    2a01        .*      CMP      r2,#1
        0x00000758:    d001        ..      BEQ      0x75e ; DrvGPIO_Open + 34
        0x0000075a:    2a02        .*      CMP      r2,#2
        0x0000075c:    d110        ..      BNE      0x780 ; DrvGPIO_Open + 68
        0x0000075e:    6818        .h      LDR      r0,[r3,#0]
        0x00000760:    43a0        .C      BICS     r0,r0,r4
        0x00000762:    6018        .`      STR      r0,[r3,#0]
        0x00000764:    2a01        .*      CMP      r2,#1
        0x00000766:    d103        ..      BNE      0x770 ; DrvGPIO_Open + 52
        0x00000768:    6818        .h      LDR      r0,[r3,#0]
        0x0000076a:    408a        .@      LSLS     r2,r2,r1
        0x0000076c:    4310        .C      ORRS     r0,r0,r2
        0x0000076e:    e00b        ..      B        0x788 ; DrvGPIO_Open + 76
        0x00000770:    2a02        .*      CMP      r2,#2
        0x00000772:    d10a        ..      BNE      0x78a ; DrvGPIO_Open + 78
        0x00000774:    681a        .h      LDR      r2,[r3,#0]
        0x00000776:    2002        .       MOVS     r0,#2
        0x00000778:    4088        .@      LSLS     r0,r0,r1
        0x0000077a:    4302        .C      ORRS     r2,r2,r0
        0x0000077c:    601a        .`      STR      r2,[r3,#0]
        0x0000077e:    e004        ..      B        0x78a ; DrvGPIO_Open + 78
        0x00000780:    2a03        .*      CMP      r2,#3
        0x00000782:    d103        ..      BNE      0x78c ; DrvGPIO_Open + 80
        0x00000784:    6818        .h      LDR      r0,[r3,#0]
        0x00000786:    4320         C      ORRS     r0,r0,r4
        0x00000788:    6018        .`      STR      r0,[r3,#0]
        0x0000078a:    2000        .       MOVS     r0,#0
        0x0000078c:    bd10        ..      POP      {r4,pc}
    $d
        0x0000078e:    0000        ..      DCW    0
        0x00000790:    ffff8901    ....    DCD    4294936833
        0x00000794:    50004000    .@.P    DCD    1342193664
    $t
    i.DrvGPIO_SetBit
    DrvGPIO_SetBit
        0x00000798:    2911        .)      CMP      r1,#0x11
        0x0000079a:    d301        ..      BCC      0x7a0 ; DrvGPIO_SetBit + 8
        0x0000079c:    4805        .H      LDR      r0,[pc,#20] ; [0x7b4] = 0xffff8901
        0x0000079e:    4770        pG      BX       lr
        0x000007a0:    4a05        .J      LDR      r2,[pc,#20] ; [0x7b8] = 0x50004000
        0x000007a2:    0180        ..      LSLS     r0,r0,#6
        0x000007a4:    1880        ..      ADDS     r0,r0,r2
        0x000007a6:    6882        .h      LDR      r2,[r0,#8]
        0x000007a8:    2301        .#      MOVS     r3,#1
        0x000007aa:    408b        .@      LSLS     r3,r3,r1
        0x000007ac:    431a        .C      ORRS     r2,r2,r3
        0x000007ae:    6082        .`      STR      r2,[r0,#8]
        0x000007b0:    2000        .       MOVS     r0,#0
        0x000007b2:    4770        pG      BX       lr
    $d
        0x000007b4:    ffff8901    ....    DCD    4294936833
        0x000007b8:    50004000    .@.P    DCD    1342193664
    $t
    i.DrvGPIO_SetDebounceTime
    DrvGPIO_SetDebounceTime
        0x000007bc:    280f        .(      CMP      r0,#0xf
        0x000007be:    d901        ..      BLS      0x7c4 ; DrvGPIO_SetDebounceTime + 8
        0x000007c0:    4809        .H      LDR      r0,[pc,#36] ; [0x7e8] = 0xffff8901
        0x000007c2:    4770        pG      BX       lr
        0x000007c4:    4a09        .J      LDR      r2,[pc,#36] ; [0x7ec] = 0x50004180
        0x000007c6:    6813        .h      LDR      r3,[r2,#0]
        0x000007c8:    0700        ..      LSLS     r0,r0,#28
        0x000007ca:    091b        ..      LSRS     r3,r3,#4
        0x000007cc:    011b        ..      LSLS     r3,r3,#4
        0x000007ce:    0f00        ..      LSRS     r0,r0,#28
        0x000007d0:    4303        .C      ORRS     r3,r3,r0
        0x000007d2:    6013        .`      STR      r3,[r2,#0]
        0x000007d4:    6810        .h      LDR      r0,[r2,#0]
        0x000007d6:    2310        .#      MOVS     r3,#0x10
        0x000007d8:    07c9        ..      LSLS     r1,r1,#31
        0x000007da:    4398        .C      BICS     r0,r0,r3
        0x000007dc:    0ec9        ..      LSRS     r1,r1,#27
        0x000007de:    4308        .C      ORRS     r0,r0,r1
        0x000007e0:    6010        .`      STR      r0,[r2,#0]
        0x000007e2:    2000        .       MOVS     r0,#0
        0x000007e4:    4770        pG      BX       lr
    $d
        0x000007e6:    0000        ..      DCW    0
        0x000007e8:    ffff8901    ....    DCD    4294936833
        0x000007ec:    50004180    .A.P    DCD    1342194048
    $t
    i.DrvSYS_Delay
    DrvSYS_Delay
        0x000007f0:    4906        .I      LDR      r1,[pc,#24] ; [0x80c] = 0x20000004
        0x000007f2:    6809        .h      LDR      r1,[r1,#0]
        0x000007f4:    4348        HC      MULS     r0,r1,r0
        0x000007f6:    4906        .I      LDR      r1,[pc,#24] ; [0x810] = 0xe000e000
        0x000007f8:    6148        Ha      STR      r0,[r1,#0x14]
        0x000007fa:    2000        .       MOVS     r0,#0
        0x000007fc:    6188        .a      STR      r0,[r1,#0x18]
        0x000007fe:    2005        .       MOVS     r0,#5
        0x00000800:    6108        .a      STR      r0,[r1,#0x10]
        0x00000802:    6908        .i      LDR      r0,[r1,#0x10]
        0x00000804:    03c0        ..      LSLS     r0,r0,#15
        0x00000806:    d5fc        ..      BPL      0x802 ; DrvSYS_Delay + 18
        0x00000808:    4770        pG      BX       lr
    $d
        0x0000080a:    0000        ..      DCW    0
        0x0000080c:    20000004    ...     DCD    536870916
        0x00000810:    e000e000    ....    DCD    3758153728
    $t
    i.DrvSYS_GetChipClockSourceStatus
    DrvSYS_GetChipClockSourceStatus
        0x00000814:    b500        ..      PUSH     {lr}
        0x00000816:    490d        .I      LDR      r1,[pc,#52] ; [0x84c] = 0x50000200
        0x00000818:    4603        .F      MOV      r3,r0
        0x0000081a:    f000ffe9    ....    BL       __ARM_common_switch8 ; 0x17f0
    $d
        0x0000081e:    0405        ..      DCW    1029
        0x00000820:    110e0b08    ....    DCD    286133000
        0x00000824:    0015        ..      DCW    21
    $t
        0x00000826:    68c8        .h      LDR      r0,[r1,#0xc]
        0x00000828:    07c0        ..      LSLS     r0,r0,#31
        0x0000082a:    0fc0        ..      LSRS     r0,r0,#31
        0x0000082c:    bd00        ..      POP      {pc}
        0x0000082e:    68c8        .h      LDR      r0,[r1,#0xc]
        0x00000830:    0780        ..      LSLS     r0,r0,#30
        0x00000832:    e007        ..      B        0x844 ; DrvSYS_GetChipClockSourceStatus + 48
        0x00000834:    68c8        .h      LDR      r0,[r1,#0xc]
        0x00000836:    06c0        ..      LSLS     r0,r0,#27
        0x00000838:    e004        ..      B        0x844 ; DrvSYS_GetChipClockSourceStatus + 48
        0x0000083a:    68c8        .h      LDR      r0,[r1,#0xc]
        0x0000083c:    0700        ..      LSLS     r0,r0,#28
        0x0000083e:    e001        ..      B        0x844 ; DrvSYS_GetChipClockSourceStatus + 48
        0x00000840:    68c8        .h      LDR      r0,[r1,#0xc]
        0x00000842:    0740        @.      LSLS     r0,r0,#29
        0x00000844:    0fc0        ..      LSRS     r0,r0,#31
        0x00000846:    bd00        ..      POP      {pc}
        0x00000848:    4801        .H      LDR      r0,[pc,#4] ; [0x850] = 0xffff9603
        0x0000084a:    bd00        ..      POP      {pc}
    $d
        0x0000084c:    50000200    ...P    DCD    1342177792
        0x00000850:    ffff9603    ....    DCD    4294940163
    $t
    i.DrvSYS_GetExtClockFreq
    DrvSYS_GetExtClockFreq
        0x00000854:    4800        .H      LDR      r0,[pc,#0] ; [0x858] = 0xb71b00
        0x00000856:    4770        pG      BX       lr
    $d
        0x00000858:    00b71b00    ....    DCD    12000000
    $t
    i.DrvSYS_GetPLLClockFreq
    DrvSYS_GetPLLClockFreq
        0x0000085c:    b57f        ..      PUSH     {r0-r6,lr}
        0x0000085e:    4c12        .L      LDR      r4,[pc,#72] ; [0x8a8] = 0x1f38
        0x00000860:    466d        mF      MOV      r5,sp
        0x00000862:    cc4e        N.      LDM      r4!,{r1-r3,r6}
        0x00000864:    c54e        N.      STM      r5!,{r1-r3,r6}
        0x00000866:    4c11        .L      LDR      r4,[pc,#68] ; [0x8ac] = 0x50000200
        0x00000868:    2000        .       MOVS     r0,#0
        0x0000086a:    6a21        !j      LDR      r1,[r4,#0x20]
        0x0000086c:    3d10        .=      SUBS     r5,r5,#0x10
        0x0000086e:    0309        ..      LSLS     r1,r1,#12
        0x00000870:    d501        ..      BPL      0x876 ; DrvSYS_GetPLLClockFreq + 26
        0x00000872:    4a0f        .J      LDR      r2,[pc,#60] ; [0x8b0] = 0x1518000
        0x00000874:    e000        ..      B        0x878 ; DrvSYS_GetPLLClockFreq + 28
        0x00000876:    4a0f        .J      LDR      r2,[pc,#60] ; [0x8b4] = 0xb71b00
        0x00000878:    6a21        !j      LDR      r1,[r4,#0x20]
        0x0000087a:    03c9        ..      LSLS     r1,r1,#15
        0x0000087c:    d411        ..      BMI      0x8a2 ; DrvSYS_GetPLLClockFreq + 70
        0x0000087e:    6a20         j      LDR      r0,[r4,#0x20]
        0x00000880:    0480        ..      LSLS     r0,r0,#18
        0x00000882:    0ec1        ..      LSRS     r1,r0,#27
        0x00000884:    6a20         j      LDR      r0,[r4,#0x20]
        0x00000886:    1c89        ..      ADDS     r1,r1,#2
        0x00000888:    05c0        ..      LSLS     r0,r0,#23
        0x0000088a:    0dc0        ..      LSRS     r0,r0,#23
        0x0000088c:    1c80        ..      ADDS     r0,r0,#2
        0x0000088e:    4350        PC      MULS     r0,r2,r0
        0x00000890:    f7fffc46    ..F.    BL       __aeabi_uidiv ; 0x120
        0x00000894:    6a21        !j      LDR      r1,[r4,#0x20]
        0x00000896:    0409        ..      LSLS     r1,r1,#16
        0x00000898:    0f89        ..      LSRS     r1,r1,#30
        0x0000089a:    0089        ..      LSLS     r1,r1,#2
        0x0000089c:    5869        iX      LDR      r1,[r5,r1]
        0x0000089e:    f7fffc3f    ..?.    BL       __aeabi_uidiv ; 0x120
        0x000008a2:    b004        ..      ADD      sp,sp,#0x10
        0x000008a4:    bd70        p.      POP      {r4-r6,pc}
    $d
        0x000008a6:    0000        ..      DCW    0
        0x000008a8:    00001f38    8...    DCD    7992
        0x000008ac:    50000200    ...P    DCD    1342177792
        0x000008b0:    01518000    ..Q.    DCD    22118400
        0x000008b4:    00b71b00    ....    DCD    12000000
    $t
    i.DrvSYS_GetPLLContent
    DrvSYS_GetPLLContent
        0x000008b8:    b5f8        ..      PUSH     {r3-r7,lr}
        0x000008ba:    4602        .F      MOV      r2,r0
        0x000008bc:    4608        .F      MOV      r0,r1
        0x000008be:    4920         I      LDR      r1,[pc,#128] ; [0x940] = 0xfa0a1eff
        0x000008c0:    4b20         K      LDR      r3,[pc,#128] ; [0x944] = 0x5f5e0ff
        0x000008c2:    4e1e        .N      LDR      r6,[pc,#120] ; [0x93c] = 0xb71b00
        0x000008c4:    1841        A.      ADDS     r1,r0,r1
        0x000008c6:    4299        .B      CMP      r1,r3
        0x000008c8:    d801        ..      BHI      0x8ce ; DrvSYS_GetPLLContent + 22
        0x000008ca:    2500        .%      MOVS     r5,#0
        0x000008cc:    e00f        ..      B        0x8ee ; DrvSYS_GetPLLContent + 54
        0x000008ce:    491e        .I      LDR      r1,[pc,#120] ; [0x948] = 0xfd050f7f
        0x000008d0:    4b1e        .K      LDR      r3,[pc,#120] ; [0x94c] = 0x2faf07f
        0x000008d2:    1841        A.      ADDS     r1,r0,r1
        0x000008d4:    4299        .B      CMP      r1,r3
        0x000008d6:    d802        ..      BHI      0x8de ; DrvSYS_GetPLLContent + 38
        0x000008d8:    2501        .%      MOVS     r5,#1
        0x000008da:    0040        @.      LSLS     r0,r0,#1
        0x000008dc:    e007        ..      B        0x8ee ; DrvSYS_GetPLLContent + 54
        0x000008de:    491c        .I      LDR      r1,[pc,#112] ; [0x950] = 0xfe8287c0
        0x000008e0:    4b1b        .K      LDR      r3,[pc,#108] ; [0x950] = 0xfe8287c0
        0x000008e2:    1841        A.      ADDS     r1,r0,r1
        0x000008e4:    425b        [B      RSBS     r3,r3,#0
        0x000008e6:    4299        .B      CMP      r1,r3
        0x000008e8:    d810        ..      BHI      0x90c ; DrvSYS_GetPLLContent + 84
        0x000008ea:    2503        .%      MOVS     r5,#3
        0x000008ec:    0080        ..      LSLS     r0,r0,#2
        0x000008ee:    2a00        .*      CMP      r2,#0
        0x000008f0:    d002        ..      BEQ      0x8f8 ; DrvSYS_GetPLLContent + 64
        0x000008f2:    2a01        .*      CMP      r2,#1
        0x000008f4:    d100        ..      BNE      0x8f8 ; DrvSYS_GetPLLContent + 64
        0x000008f6:    4e17        .N      LDR      r6,[pc,#92] ; [0x954] = 0x1518000
        0x000008f8:    4f17        .O      LDR      r7,[pc,#92] ; [0x958] = 0xf4240
        0x000008fa:    4639        9F      MOV      r1,r7
        0x000008fc:    f7fffc10    ....    BL       __aeabi_uidiv ; 0x120
        0x00000900:    4604        .F      MOV      r4,r0
        0x00000902:    4639        9F      MOV      r1,r7
        0x00000904:    4630        0F      MOV      r0,r6
        0x00000906:    f7fffc0b    ....    BL       __aeabi_uidiv ; 0x120
        0x0000090a:    e001        ..      B        0x910 ; DrvSYS_GetPLLContent + 88
        0x0000090c:    4813        .H      LDR      r0,[pc,#76] ; [0x95c] = 0xc22e
        0x0000090e:    bdf8        ..      POP      {r3-r7,pc}
        0x00000910:    4601        .F      MOV      r1,r0
        0x00000912:    4321        !C      ORRS     r1,r1,r4
        0x00000914:    07c9        ..      LSLS     r1,r1,#31
        0x00000916:    d106        ..      BNE      0x926 ; DrvSYS_GetPLLContent + 110
        0x00000918:    2802        .(      CMP      r0,#2
        0x0000091a:    d004        ..      BEQ      0x926 ; DrvSYS_GetPLLContent + 110
        0x0000091c:    2c02        .,      CMP      r4,#2
        0x0000091e:    d002        ..      BEQ      0x926 ; DrvSYS_GetPLLContent + 110
        0x00000920:    0840        @.      LSRS     r0,r0,#1
        0x00000922:    0864        d.      LSRS     r4,r4,#1
        0x00000924:    e7f4        ..      B        0x910 ; DrvSYS_GetPLLContent + 88
        0x00000926:    2201        ."      MOVS     r2,#1
        0x00000928:    0240        @.      LSLS     r0,r0,#9
        0x0000092a:    0292        ..      LSLS     r2,r2,#10
        0x0000092c:    03a9        ..      LSLS     r1,r5,#14
        0x0000092e:    1a80        ..      SUBS     r0,r0,r2
        0x00000930:    4301        .C      ORRS     r1,r1,r0
        0x00000932:    1ea4        ..      SUBS     r4,r4,#2
        0x00000934:    4321        !C      ORRS     r1,r1,r4
        0x00000936:    4608        .F      MOV      r0,r1
        0x00000938:    bdf8        ..      POP      {r3-r7,pc}
    $d
        0x0000093a:    0000        ..      DCW    0
        0x0000093c:    00b71b00    ....    DCD    12000000
        0x00000940:    fa0a1eff    ....    DCD    4194967295
        0x00000944:    05f5e0ff    ....    DCD    99999999
        0x00000948:    fd050f7f    ....    DCD    4244967295
        0x0000094c:    02faf07f    ....    DCD    49999999
        0x00000950:    fe8287c0    ....    DCD    4269967296
        0x00000954:    01518000    ..Q.    DCD    22118400
        0x00000958:    000f4240    @B..    DCD    1000000
        0x0000095c:    0000c22e    ....    DCD    49710
    $t
    i.DrvSYS_IsProtectedRegLocked
    DrvSYS_IsProtectedRegLocked
        0x00000960:    4802        .H      LDR      r0,[pc,#8] ; [0x96c] = 0x50000100
        0x00000962:    6800        .h      LDR      r0,[r0,#0]
        0x00000964:    07c0        ..      LSLS     r0,r0,#31
        0x00000966:    0fc0        ..      LSRS     r0,r0,#31
        0x00000968:    4770        pG      BX       lr
    $d
        0x0000096a:    0000        ..      DCW    0
        0x0000096c:    50000100    ...P    DCD    1342177536
    $t
    i.DrvSYS_Open
    DrvSYS_Open
        0x00000970:    4601        .F      MOV      r1,r0
        0x00000972:    b570        p.      PUSH     {r4-r6,lr}
        0x00000974:    481b        .H      LDR      r0,[pc,#108] ; [0x9e4] = 0xfe8287c0
        0x00000976:    4b1c        .K      LDR      r3,[pc,#112] ; [0x9e8] = 0x17d7841
        0x00000978:    2200        ."      MOVS     r2,#0
        0x0000097a:    1808        ..      ADDS     r0,r1,r0
        0x0000097c:    4298        .B      CMP      r0,r3
        0x0000097e:    d301        ..      BCC      0x984 ; DrvSYS_Open + 20
        0x00000980:    481a        .H      LDR      r0,[pc,#104] ; [0x9ec] = 0xffff9606
        0x00000982:    bd70        p.      POP      {r4-r6,pc}
        0x00000984:    f7ffffec    ....    BL       DrvSYS_IsProtectedRegLocked ; 0x960
        0x00000988:    2800        .(      CMP      r0,#0
        0x0000098a:    d102        ..      BNE      0x992 ; DrvSYS_Open + 34
        0x0000098c:    4817        .H      LDR      r0,[pc,#92] ; [0x9ec] = 0xffff9606
        0x0000098e:    1c40        @.      ADDS     r0,r0,#1
        0x00000990:    bd70        p.      POP      {r4-r6,pc}
        0x00000992:    4d17        .M      LDR      r5,[pc,#92] ; [0x9f0] = 0x50000200
        0x00000994:    6a28        (j      LDR      r0,[r5,#0x20]
        0x00000996:    0300        ..      LSLS     r0,r0,#12
        0x00000998:    6828        (h      LDR      r0,[r5,#0]
        0x0000099a:    d403        ..      BMI      0x9a4 ; DrvSYS_Open + 52
        0x0000099c:    2301        .#      MOVS     r3,#1
        0x0000099e:    4318        .C      ORRS     r0,r0,r3
        0x000009a0:    6028        (`      STR      r0,[r5,#0]
        0x000009a2:    e003        ..      B        0x9ac ; DrvSYS_Open + 60
        0x000009a4:    2204        ."      MOVS     r2,#4
        0x000009a6:    4310        .C      ORRS     r0,r0,r2
        0x000009a8:    6028        (`      STR      r0,[r5,#0]
        0x000009aa:    2201        ."      MOVS     r2,#1
        0x000009ac:    4610        .F      MOV      r0,r2
        0x000009ae:    f7ffff83    ....    BL       DrvSYS_GetPLLContent ; 0x8b8
        0x000009b2:    4c10        .L      LDR      r4,[pc,#64] ; [0x9f4] = 0x2710
        0x000009b4:    2100        .!      MOVS     r1,#0
        0x000009b6:    1c49        I.      ADDS     r1,r1,#1
        0x000009b8:    42a1        .B      CMP      r1,r4
        0x000009ba:    d3fc        ..      BCC      0x9b6 ; DrvSYS_Open + 70
        0x000009bc:    f000f85e    ..^.    BL       DrvSYS_SetPLLContent ; 0xa7c
        0x000009c0:    6a28        (j      LDR      r0,[r5,#0x20]
        0x000009c2:    2101        .!      MOVS     r1,#1
        0x000009c4:    0489        ..      LSLS     r1,r1,#18
        0x000009c6:    4388        .C      BICS     r0,r0,r1
        0x000009c8:    6228        (b      STR      r0,[r5,#0x20]
        0x000009ca:    6a28        (j      LDR      r0,[r5,#0x20]
        0x000009cc:    1089        ..      ASRS     r1,r1,#2
        0x000009ce:    4388        .C      BICS     r0,r0,r1
        0x000009d0:    6228        (b      STR      r0,[r5,#0x20]
        0x000009d2:    2000        .       MOVS     r0,#0
        0x000009d4:    1c40        @.      ADDS     r0,r0,#1
        0x000009d6:    42a0        .B      CMP      r0,r4
        0x000009d8:    d3fc        ..      BCC      0x9d4 ; DrvSYS_Open + 100
        0x000009da:    2002        .       MOVS     r0,#2
        0x000009dc:    f000f80c    ....    BL       DrvSYS_SelectHCLKSource ; 0x9f8
        0x000009e0:    2000        .       MOVS     r0,#0
        0x000009e2:    bd70        p.      POP      {r4-r6,pc}
    $d
        0x000009e4:    fe8287c0    ....    DCD    4269967296
        0x000009e8:    017d7841    Ax}.    DCD    25000001
        0x000009ec:    ffff9606    ....    DCD    4294940166
        0x000009f0:    50000200    ...P    DCD    1342177792
        0x000009f4:    00002710    .'..    DCD    10000
    $t
    i.DrvSYS_SelectHCLKSource
    DrvSYS_SelectHCLKSource
        0x000009f8:    b510        ..      PUSH     {r4,lr}
        0x000009fa:    2807        .(      CMP      r0,#7
        0x000009fc:    d802        ..      BHI      0xa04 ; DrvSYS_SelectHCLKSource + 12
        0x000009fe:    1f01        ..      SUBS     r1,r0,#4
        0x00000a00:    2903        .)      CMP      r1,#3
        0x00000a02:    d201        ..      BCS      0xa08 ; DrvSYS_SelectHCLKSource + 16
        0x00000a04:    4806        .H      LDR      r0,[pc,#24] ; [0xa20] = 0xffff9603
        0x00000a06:    bd10        ..      POP      {r4,pc}
        0x00000a08:    4906        .I      LDR      r1,[pc,#24] ; [0xa24] = 0x50000200
        0x00000a0a:    690a        .i      LDR      r2,[r1,#0x10]
        0x00000a0c:    0740        @.      LSLS     r0,r0,#29
        0x00000a0e:    08d2        ..      LSRS     r2,r2,#3
        0x00000a10:    00d2        ..      LSLS     r2,r2,#3
        0x00000a12:    0f40        @.      LSRS     r0,r0,#29
        0x00000a14:    4302        .C      ORRS     r2,r2,r0
        0x00000a16:    610a        .a      STR      r2,[r1,#0x10]
        0x00000a18:    f000fdfc    ....    BL       SystemCoreClockUpdate ; 0x1614
        0x00000a1c:    2000        .       MOVS     r0,#0
        0x00000a1e:    bd10        ..      POP      {r4,pc}
    $d
        0x00000a20:    ffff9603    ....    DCD    4294940163
        0x00000a24:    50000200    ...P    DCD    1342177792
    $t
    i.DrvSYS_SetOscCtrl
    DrvSYS_SetOscCtrl
        0x00000a28:    4a12        .J      LDR      r2,[pc,#72] ; [0xa74] = 0x50000200
        0x00000a2a:    2800        .(      CMP      r0,#0
        0x00000a2c:    d00b        ..      BEQ      0xa46 ; DrvSYS_SetOscCtrl + 30
        0x00000a2e:    2801        .(      CMP      r0,#1
        0x00000a30:    d00f        ..      BEQ      0xa52 ; DrvSYS_SetOscCtrl + 42
        0x00000a32:    2802        .(      CMP      r0,#2
        0x00000a34:    d016        ..      BEQ      0xa64 ; DrvSYS_SetOscCtrl + 60
        0x00000a36:    2803        .(      CMP      r0,#3
        0x00000a38:    d11a        ..      BNE      0xa70 ; DrvSYS_SetOscCtrl + 72
        0x00000a3a:    6810        .h      LDR      r0,[r2,#0]
        0x00000a3c:    2308        .#      MOVS     r3,#8
        0x00000a3e:    4398        .C      BICS     r0,r0,r3
        0x00000a40:    07c9        ..      LSLS     r1,r1,#31
        0x00000a42:    0f09        ..      LSRS     r1,r1,#28
        0x00000a44:    e00a        ..      B        0xa5c ; DrvSYS_SetOscCtrl + 52
        0x00000a46:    6810        .h      LDR      r0,[r2,#0]
        0x00000a48:    07c9        ..      LSLS     r1,r1,#31
        0x00000a4a:    0840        @.      LSRS     r0,r0,#1
        0x00000a4c:    0040        @.      LSLS     r0,r0,#1
        0x00000a4e:    0fc9        ..      LSRS     r1,r1,#31
        0x00000a50:    e004        ..      B        0xa5c ; DrvSYS_SetOscCtrl + 52
        0x00000a52:    6810        .h      LDR      r0,[r2,#0]
        0x00000a54:    2302        .#      MOVS     r3,#2
        0x00000a56:    4398        .C      BICS     r0,r0,r3
        0x00000a58:    07c9        ..      LSLS     r1,r1,#31
        0x00000a5a:    0f89        ..      LSRS     r1,r1,#30
        0x00000a5c:    4308        .C      ORRS     r0,r0,r1
        0x00000a5e:    6010        .`      STR      r0,[r2,#0]
        0x00000a60:    2000        .       MOVS     r0,#0
        0x00000a62:    4770        pG      BX       lr
        0x00000a64:    6810        .h      LDR      r0,[r2,#0]
        0x00000a66:    2304        .#      MOVS     r3,#4
        0x00000a68:    4398        .C      BICS     r0,r0,r3
        0x00000a6a:    07c9        ..      LSLS     r1,r1,#31
        0x00000a6c:    0f49        I.      LSRS     r1,r1,#29
        0x00000a6e:    e7f5        ..      B        0xa5c ; DrvSYS_SetOscCtrl + 52
        0x00000a70:    4801        .H      LDR      r0,[pc,#4] ; [0xa78] = 0xffff9603
        0x00000a72:    4770        pG      BX       lr
    $d
        0x00000a74:    50000200    ...P    DCD    1342177792
        0x00000a78:    ffff9603    ....    DCD    4294940163
    $t
    i.DrvSYS_SetPLLContent
    DrvSYS_SetPLLContent
        0x00000a7c:    490d        .I      LDR      r1,[pc,#52] ; [0xab4] = 0x50000200
        0x00000a7e:    6a0a        .j      LDR      r2,[r1,#0x20]
        0x00000a80:    05c3        ..      LSLS     r3,r0,#23
        0x00000a82:    0a52        R.      LSRS     r2,r2,#9
        0x00000a84:    0252        R.      LSLS     r2,r2,#9
        0x00000a86:    0ddb        ..      LSRS     r3,r3,#23
        0x00000a88:    431a        .C      ORRS     r2,r2,r3
        0x00000a8a:    620a        .b      STR      r2,[r1,#0x20]
        0x00000a8c:    6a0a        .j      LDR      r2,[r1,#0x20]
        0x00000a8e:    231f        .#      MOVS     r3,#0x1f
        0x00000a90:    025b        [.      LSLS     r3,r3,#9
        0x00000a92:    439a        .C      BICS     r2,r2,r3
        0x00000a94:    0483        ..      LSLS     r3,r0,#18
        0x00000a96:    0edb        ..      LSRS     r3,r3,#27
        0x00000a98:    025b        [.      LSLS     r3,r3,#9
        0x00000a9a:    431a        .C      ORRS     r2,r2,r3
        0x00000a9c:    620a        .b      STR      r2,[r1,#0x20]
        0x00000a9e:    6a0a        .j      LDR      r2,[r1,#0x20]
        0x00000aa0:    2303        .#      MOVS     r3,#3
        0x00000aa2:    039b        ..      LSLS     r3,r3,#14
        0x00000aa4:    0400        ..      LSLS     r0,r0,#16
        0x00000aa6:    0f80        ..      LSRS     r0,r0,#30
        0x00000aa8:    439a        .C      BICS     r2,r2,r3
        0x00000aaa:    0380        ..      LSLS     r0,r0,#14
        0x00000aac:    4302        .C      ORRS     r2,r2,r0
        0x00000aae:    620a        .b      STR      r2,[r1,#0x20]
        0x00000ab0:    4770        pG      BX       lr
    $d
        0x00000ab2:    0000        ..      DCW    0
        0x00000ab4:    50000200    ...P    DCD    1342177792
    $t
    i.DrvUART_EnableInt
    DrvUART_EnableInt
        0x00000ab8:    b530        0.      PUSH     {r4,r5,lr}
        0x00000aba:    4b31        1K      LDR      r3,[pc,#196] ; [0xb80] = 0x40050000
        0x00000abc:    18c3        ..      ADDS     r3,r0,r3
        0x00000abe:    685c        \h      LDR      r4,[r3,#4]
        0x00000ac0:    07cd        ..      LSLS     r5,r1,#31
        0x00000ac2:    0864        d.      LSRS     r4,r4,#1
        0x00000ac4:    0064        d.      LSLS     r4,r4,#1
        0x00000ac6:    0fed        ..      LSRS     r5,r5,#31
        0x00000ac8:    432c        ,C      ORRS     r4,r4,r5
        0x00000aca:    605c        \`      STR      r4,[r3,#4]
        0x00000acc:    078c        ..      LSLS     r4,r1,#30
        0x00000ace:    2502        .%      MOVS     r5,#2
        0x00000ad0:    2c00        .,      CMP      r4,#0
        0x00000ad2:    685c        \h      LDR      r4,[r3,#4]
        0x00000ad4:    da01        ..      BGE      0xada ; DrvUART_EnableInt + 34
        0x00000ad6:    432c        ,C      ORRS     r4,r4,r5
        0x00000ad8:    e000        ..      B        0xadc ; DrvUART_EnableInt + 36
        0x00000ada:    43ac        .C      BICS     r4,r4,r5
        0x00000adc:    605c        \`      STR      r4,[r3,#4]
        0x00000ade:    074c        L.      LSLS     r4,r1,#29
        0x00000ae0:    2504        .%      MOVS     r5,#4
        0x00000ae2:    2c00        .,      CMP      r4,#0
        0x00000ae4:    685c        \h      LDR      r4,[r3,#4]
        0x00000ae6:    da01        ..      BGE      0xaec ; DrvUART_EnableInt + 52
        0x00000ae8:    432c        ,C      ORRS     r4,r4,r5
        0x00000aea:    e000        ..      B        0xaee ; DrvUART_EnableInt + 54
        0x00000aec:    43ac        .C      BICS     r4,r4,r5
        0x00000aee:    605c        \`      STR      r4,[r3,#4]
        0x00000af0:    070c        ..      LSLS     r4,r1,#28
        0x00000af2:    2508        .%      MOVS     r5,#8
        0x00000af4:    2c00        .,      CMP      r4,#0
        0x00000af6:    685c        \h      LDR      r4,[r3,#4]
        0x00000af8:    da01        ..      BGE      0xafe ; DrvUART_EnableInt + 70
        0x00000afa:    432c        ,C      ORRS     r4,r4,r5
        0x00000afc:    e000        ..      B        0xb00 ; DrvUART_EnableInt + 72
        0x00000afe:    43ac        .C      BICS     r4,r4,r5
        0x00000b00:    605c        \`      STR      r4,[r3,#4]
        0x00000b02:    06cc        ..      LSLS     r4,r1,#27
        0x00000b04:    4d1f        .M      LDR      r5,[pc,#124] ; [0xb84] = 0x800
        0x00000b06:    685c        \h      LDR      r4,[r3,#4]
        0x00000b08:    d501        ..      BPL      0xb0e ; DrvUART_EnableInt + 86
        0x00000b0a:    432c        ,C      ORRS     r4,r4,r5
        0x00000b0c:    e000        ..      B        0xb10 ; DrvUART_EnableInt + 88
        0x00000b0e:    43ac        .C      BICS     r4,r4,r5
        0x00000b10:    605c        \`      STR      r4,[r3,#4]
        0x00000b12:    06cc        ..      LSLS     r4,r1,#27
        0x00000b14:    2510        .%      MOVS     r5,#0x10
        0x00000b16:    2c00        .,      CMP      r4,#0
        0x00000b18:    685c        \h      LDR      r4,[r3,#4]
        0x00000b1a:    da01        ..      BGE      0xb20 ; DrvUART_EnableInt + 104
        0x00000b1c:    432c        ,C      ORRS     r4,r4,r5
        0x00000b1e:    e000        ..      B        0xb22 ; DrvUART_EnableInt + 106
        0x00000b20:    43ac        .C      BICS     r4,r4,r5
        0x00000b22:    605c        \`      STR      r4,[r3,#4]
        0x00000b24:    068c        ..      LSLS     r4,r1,#26
        0x00000b26:    2520         %      MOVS     r5,#0x20
        0x00000b28:    2c00        .,      CMP      r4,#0
        0x00000b2a:    685c        \h      LDR      r4,[r3,#4]
        0x00000b2c:    da01        ..      BGE      0xb32 ; DrvUART_EnableInt + 122
        0x00000b2e:    432c        ,C      ORRS     r4,r4,r5
        0x00000b30:    e000        ..      B        0xb34 ; DrvUART_EnableInt + 124
        0x00000b32:    43ac        .C      BICS     r4,r4,r5
        0x00000b34:    605c        \`      STR      r4,[r3,#4]
        0x00000b36:    060c        ..      LSLS     r4,r1,#24
        0x00000b38:    2540        @%      MOVS     r5,#0x40
        0x00000b3a:    2c00        .,      CMP      r4,#0
        0x00000b3c:    685c        \h      LDR      r4,[r3,#4]
        0x00000b3e:    da01        ..      BGE      0xb44 ; DrvUART_EnableInt + 140
        0x00000b40:    432c        ,C      ORRS     r4,r4,r5
        0x00000b42:    e000        ..      B        0xb46 ; DrvUART_EnableInt + 142
        0x00000b44:    43ac        .C      BICS     r4,r4,r5
        0x00000b46:    605c        \`      STR      r4,[r3,#4]
        0x00000b48:    05c9        ..      LSLS     r1,r1,#23
        0x00000b4a:    4c0f        .L      LDR      r4,[pc,#60] ; [0xb88] = 0x100
        0x00000b4c:    6859        Yh      LDR      r1,[r3,#4]
        0x00000b4e:    d501        ..      BPL      0xb54 ; DrvUART_EnableInt + 156
        0x00000b50:    4321        !C      ORRS     r1,r1,r4
        0x00000b52:    e000        ..      B        0xb56 ; DrvUART_EnableInt + 158
        0x00000b54:    43a1        .C      BICS     r1,r1,r4
        0x00000b56:    6059        Y`      STR      r1,[r3,#4]
        0x00000b58:    2401        .$      MOVS     r4,#1
        0x00000b5a:    0324        $.      LSLS     r4,r4,#12
        0x00000b5c:    490b        .I      LDR      r1,[pc,#44] ; [0xb8c] = 0x20000684
        0x00000b5e:    4b0c        .K      LDR      r3,[pc,#48] ; [0xb90] = 0xe000e100
        0x00000b60:    2800        .(      CMP      r0,#0
        0x00000b62:    d101        ..      BNE      0xb68 ; DrvUART_EnableInt + 176
        0x00000b64:    600a        .`      STR      r2,[r1,#0]
        0x00000b66:    e008        ..      B        0xb7a ; DrvUART_EnableInt + 194
        0x00000b68:    2501        .%      MOVS     r5,#1
        0x00000b6a:    052d        -.      LSLS     r5,r5,#20
        0x00000b6c:    42a8        .B      CMP      r0,r5
        0x00000b6e:    d103        ..      BNE      0xb78 ; DrvUART_EnableInt + 192
        0x00000b70:    11c0        ..      ASRS     r0,r0,#7
        0x00000b72:    604a        J`      STR      r2,[r1,#4]
        0x00000b74:    6018        .`      STR      r0,[r3,#0]
        0x00000b76:    bd30        0.      POP      {r4,r5,pc}
        0x00000b78:    608a        .`      STR      r2,[r1,#8]
        0x00000b7a:    601c        .`      STR      r4,[r3,#0]
        0x00000b7c:    bd30        0.      POP      {r4,r5,pc}
    $d
        0x00000b7e:    0000        ..      DCW    0
        0x00000b80:    40050000    ...@    DCD    1074069504
        0x00000b84:    00000800    ....    DCD    2048
        0x00000b88:    00000100    ....    DCD    256
        0x00000b8c:    20000684    ...     DCD    536872580
        0x00000b90:    e000e100    ....    DCD    3758153984
    $t
    i.DrvUART_Open
    DrvUART_Open
        0x00000b94:    b570        p.      PUSH     {r4-r6,lr}
        0x00000b96:    460c        .F      MOV      r4,r1
        0x00000b98:    4967        gI      LDR      r1,[pc,#412] ; [0xd38] = 0x100000
        0x00000b9a:    0005        ..      MOVS     r5,r0
        0x00000b9c:    d007        ..      BEQ      0xbae ; DrvUART_Open + 26
        0x00000b9e:    428d        .B      CMP      r5,r1
        0x00000ba0:    d005        ..      BEQ      0xbae ; DrvUART_Open + 26
        0x00000ba2:    2041        A       MOVS     r0,#0x41
        0x00000ba4:    0380        ..      LSLS     r0,r0,#14
        0x00000ba6:    4285        .B      CMP      r5,r0
        0x00000ba8:    d001        ..      BEQ      0xbae ; DrvUART_Open + 26
        0x00000baa:    4864        dH      LDR      r0,[pc,#400] ; [0xd3c] = 0xffff9802
        0x00000bac:    bd70        p.      POP      {r4-r6,pc}
        0x00000bae:    79a0        .y      LDRB     r0,[r4,#6]
        0x00000bb0:    2800        .(      CMP      r0,#0
        0x00000bb2:    d00a        ..      BEQ      0xbca ; DrvUART_Open + 54
        0x00000bb4:    2803        .(      CMP      r0,#3
        0x00000bb6:    d008        ..      BEQ      0xbca ; DrvUART_Open + 54
        0x00000bb8:    2801        .(      CMP      r0,#1
        0x00000bba:    d006        ..      BEQ      0xbca ; DrvUART_Open + 54
        0x00000bbc:    2805        .(      CMP      r0,#5
        0x00000bbe:    d004        ..      BEQ      0xbca ; DrvUART_Open + 54
        0x00000bc0:    2807        .(      CMP      r0,#7
        0x00000bc2:    d002        ..      BEQ      0xbca ; DrvUART_Open + 54
        0x00000bc4:    485d        ]H      LDR      r0,[pc,#372] ; [0xd3c] = 0xffff9802
        0x00000bc6:    1c40        @.      ADDS     r0,r0,#1
        0x00000bc8:    bd70        p.      POP      {r4-r6,pc}
        0x00000bca:    7920         y      LDRB     r0,[r4,#4]
        0x00000bcc:    2800        .(      CMP      r0,#0
        0x00000bce:    d008        ..      BEQ      0xbe2 ; DrvUART_Open + 78
        0x00000bd0:    2801        .(      CMP      r0,#1
        0x00000bd2:    d006        ..      BEQ      0xbe2 ; DrvUART_Open + 78
        0x00000bd4:    2802        .(      CMP      r0,#2
        0x00000bd6:    d004        ..      BEQ      0xbe2 ; DrvUART_Open + 78
        0x00000bd8:    2803        .(      CMP      r0,#3
        0x00000bda:    d002        ..      BEQ      0xbe2 ; DrvUART_Open + 78
        0x00000bdc:    4857        WH      LDR      r0,[pc,#348] ; [0xd3c] = 0xffff9802
        0x00000bde:    1c80        ..      ADDS     r0,r0,#2
        0x00000be0:    bd70        p.      POP      {r4-r6,pc}
        0x00000be2:    7960        `y      LDRB     r0,[r4,#5]
        0x00000be4:    2800        .(      CMP      r0,#0
        0x00000be6:    d004        ..      BEQ      0xbf2 ; DrvUART_Open + 94
        0x00000be8:    2801        .(      CMP      r0,#1
        0x00000bea:    d002        ..      BEQ      0xbf2 ; DrvUART_Open + 94
        0x00000bec:    4853        SH      LDR      r0,[pc,#332] ; [0xd3c] = 0xffff9802
        0x00000bee:    1cc0        ..      ADDS     r0,r0,#3
        0x00000bf0:    bd70        p.      POP      {r4-r6,pc}
        0x00000bf2:    79e0        .y      LDRB     r0,[r4,#7]
        0x00000bf4:    2800        .(      CMP      r0,#0
        0x00000bf6:    d00e        ..      BEQ      0xc16 ; DrvUART_Open + 130
        0x00000bf8:    2801        .(      CMP      r0,#1
        0x00000bfa:    d00c        ..      BEQ      0xc16 ; DrvUART_Open + 130
        0x00000bfc:    2802        .(      CMP      r0,#2
        0x00000bfe:    d00a        ..      BEQ      0xc16 ; DrvUART_Open + 130
        0x00000c00:    2803        .(      CMP      r0,#3
        0x00000c02:    d008        ..      BEQ      0xc16 ; DrvUART_Open + 130
        0x00000c04:    2804        .(      CMP      r0,#4
        0x00000c06:    d006        ..      BEQ      0xc16 ; DrvUART_Open + 130
        0x00000c08:    2805        .(      CMP      r0,#5
        0x00000c0a:    d004        ..      BEQ      0xc16 ; DrvUART_Open + 130
        0x00000c0c:    2806        .(      CMP      r0,#6
        0x00000c0e:    d002        ..      BEQ      0xc16 ; DrvUART_Open + 130
        0x00000c10:    484a        JH      LDR      r0,[pc,#296] ; [0xd3c] = 0xffff9802
        0x00000c12:    1d00        ..      ADDS     r0,r0,#4
        0x00000c14:    bd70        p.      POP      {r4-r6,pc}
        0x00000c16:    2005        .       MOVS     r0,#5
        0x00000c18:    0700        ..      LSLS     r0,r0,#28
        0x00000c1a:    4a49        IJ      LDR      r2,[pc,#292] ; [0xd40] = 0x50000200
        0x00000c1c:    2d00        .-      CMP      r5,#0
        0x00000c1e:    d102        ..      BNE      0xc26 ; DrvUART_Open + 146
        0x00000c20:    68c3        .h      LDR      r3,[r0,#0xc]
        0x00000c22:    01d1        ..      LSLS     r1,r2,#7
        0x00000c24:    e007        ..      B        0xc36 ; DrvUART_Open + 162
        0x00000c26:    68c3        .h      LDR      r3,[r0,#0xc]
        0x00000c28:    428d        .B      CMP      r5,r1
        0x00000c2a:    d102        ..      BNE      0xc32 ; DrvUART_Open + 158
        0x00000c2c:    2101        .!      MOVS     r1,#1
        0x00000c2e:    0449        I.      LSLS     r1,r1,#17
        0x00000c30:    e001        ..      B        0xc36 ; DrvUART_Open + 162
        0x00000c32:    2101        .!      MOVS     r1,#1
        0x00000c34:    0489        ..      LSLS     r1,r1,#18
        0x00000c36:    430b        .C      ORRS     r3,r3,r1
        0x00000c38:    60c3        .`      STR      r3,[r0,#0xc]
        0x00000c3a:    68c3        .h      LDR      r3,[r0,#0xc]
        0x00000c3c:    438b        .C      BICS     r3,r3,r1
        0x00000c3e:    60c3        .`      STR      r3,[r0,#0xc]
        0x00000c40:    6890        .h      LDR      r0,[r2,#8]
        0x00000c42:    4308        .C      ORRS     r0,r0,r1
        0x00000c44:    6090        .`      STR      r0,[r2,#8]
        0x00000c46:    483f        ?H      LDR      r0,[pc,#252] ; [0xd44] = 0x40050000
        0x00000c48:    1828        (.      ADDS     r0,r5,r0
        0x00000c4a:    6881        .h      LDR      r1,[r0,#8]
        0x00000c4c:    2304        .#      MOVS     r3,#4
        0x00000c4e:    4319        .C      ORRS     r1,r1,r3
        0x00000c50:    6081        .`      STR      r1,[r0,#8]
        0x00000c52:    6881        .h      LDR      r1,[r0,#8]
        0x00000c54:    2602        .&      MOVS     r6,#2
        0x00000c56:    4331        1C      ORRS     r1,r1,r6
        0x00000c58:    6081        .`      STR      r1,[r0,#8]
        0x00000c5a:    6881        .h      LDR      r1,[r0,#8]
        0x00000c5c:    26f0        .&      MOVS     r6,#0xf0
        0x00000c5e:    43b1        .C      BICS     r1,r1,r6
        0x00000c60:    79e6        .y      LDRB     r6,[r4,#7]
        0x00000c62:    0736        6.      LSLS     r6,r6,#28
        0x00000c64:    0e36        6.      LSRS     r6,r6,#24
        0x00000c66:    4331        1C      ORRS     r1,r1,r6
        0x00000c68:    6081        .`      STR      r1,[r0,#8]
        0x00000c6a:    79a1        .y      LDRB     r1,[r4,#6]
        0x00000c6c:    2620         &      MOVS     r6,#0x20
        0x00000c6e:    0749        I.      LSLS     r1,r1,#29
        0x00000c70:    2900        .)      CMP      r1,#0
        0x00000c72:    68c1        .h      LDR      r1,[r0,#0xc]
        0x00000c74:    da01        ..      BGE      0xc7a ; DrvUART_Open + 230
        0x00000c76:    4331        1C      ORRS     r1,r1,r6
        0x00000c78:    e000        ..      B        0xc7c ; DrvUART_Open + 232
        0x00000c7a:    43b1        .C      BICS     r1,r1,r6
        0x00000c7c:    60c1        .`      STR      r1,[r0,#0xc]
        0x00000c7e:    79a1        .y      LDRB     r1,[r4,#6]
        0x00000c80:    2610        .&      MOVS     r6,#0x10
        0x00000c82:    0789        ..      LSLS     r1,r1,#30
        0x00000c84:    2900        .)      CMP      r1,#0
        0x00000c86:    68c1        .h      LDR      r1,[r0,#0xc]
        0x00000c88:    da01        ..      BGE      0xc8e ; DrvUART_Open + 250
        0x00000c8a:    4331        1C      ORRS     r1,r1,r6
        0x00000c8c:    e000        ..      B        0xc90 ; DrvUART_Open + 252
        0x00000c8e:    43b1        .C      BICS     r1,r1,r6
        0x00000c90:    60c1        .`      STR      r1,[r0,#0xc]
        0x00000c92:    68c1        .h      LDR      r1,[r0,#0xc]
        0x00000c94:    2608        .&      MOVS     r6,#8
        0x00000c96:    43b1        .C      BICS     r1,r1,r6
        0x00000c98:    79a6        .y      LDRB     r6,[r4,#6]
        0x00000c9a:    07f6        ..      LSLS     r6,r6,#31
        0x00000c9c:    0f36        6.      LSRS     r6,r6,#28
        0x00000c9e:    4331        1C      ORRS     r1,r1,r6
        0x00000ca0:    60c1        .`      STR      r1,[r0,#0xc]
        0x00000ca2:    68c1        .h      LDR      r1,[r0,#0xc]
        0x00000ca4:    7926        &y      LDRB     r6,[r4,#4]
        0x00000ca6:    0889        ..      LSRS     r1,r1,#2
        0x00000ca8:    0089        ..      LSLS     r1,r1,#2
        0x00000caa:    07b6        ..      LSLS     r6,r6,#30
        0x00000cac:    0fb6        ..      LSRS     r6,r6,#30
        0x00000cae:    4331        1C      ORRS     r1,r1,r6
        0x00000cb0:    60c1        .`      STR      r1,[r0,#0xc]
        0x00000cb2:    68c1        .h      LDR      r1,[r0,#0xc]
        0x00000cb4:    4399        .C      BICS     r1,r1,r3
        0x00000cb6:    7963        cy      LDRB     r3,[r4,#5]
        0x00000cb8:    07db        ..      LSLS     r3,r3,#31
        0x00000cba:    0f5b        [.      LSRS     r3,r3,#29
        0x00000cbc:    4319        .C      ORRS     r1,r1,r3
        0x00000cbe:    60c1        .`      STR      r1,[r0,#0xc]
        0x00000cc0:    6a01        .j      LDR      r1,[r0,#0x20]
        0x00000cc2:    7a23        #z      LDRB     r3,[r4,#8]
        0x00000cc4:    0a09        ..      LSRS     r1,r1,#8
        0x00000cc6:    0209        ..      LSLS     r1,r1,#8
        0x00000cc8:    4319        .C      ORRS     r1,r1,r3
        0x00000cca:    6201        .b      STR      r1,[r0,#0x20]
        0x00000ccc:    6810        .h      LDR      r0,[r2,#0]
        0x00000cce:    07c1        ..      LSLS     r1,r0,#31
        0x00000cd0:    481d        .H      LDR      r0,[pc,#116] ; [0xd48] = 0x3000000
        0x00000cd2:    d002        ..      BEQ      0xcda ; DrvUART_Open + 326
        0x00000cd4:    6951        Qi      LDR      r1,[r2,#0x14]
        0x00000cd6:    4381        .C      BICS     r1,r1,r0
        0x00000cd8:    e00e        ..      B        0xcf8 ; DrvUART_Open + 356
        0x00000cda:    6a11        .j      LDR      r1,[r2,#0x20]
        0x00000cdc:    03c9        ..      LSLS     r1,r1,#15
        0x00000cde:    d406        ..      BMI      0xcee ; DrvUART_Open + 346
        0x00000ce0:    6951        Qi      LDR      r1,[r2,#0x14]
        0x00000ce2:    4381        .C      BICS     r1,r1,r0
        0x00000ce4:    2001        .       MOVS     r0,#1
        0x00000ce6:    0600        ..      LSLS     r0,r0,#24
        0x00000ce8:    1808        ..      ADDS     r0,r1,r0
        0x00000cea:    6150        Pa      STR      r0,[r2,#0x14]
        0x00000cec:    e005        ..      B        0xcfa ; DrvUART_Open + 358
        0x00000cee:    6811        .h      LDR      r1,[r2,#0]
        0x00000cf0:    0749        I.      LSLS     r1,r1,#29
        0x00000cf2:    d50c        ..      BPL      0xd0e ; DrvUART_Open + 378
        0x00000cf4:    6951        Qi      LDR      r1,[r2,#0x14]
        0x00000cf6:    4301        .C      ORRS     r1,r1,r0
        0x00000cf8:    6151        Qa      STR      r1,[r2,#0x14]
        0x00000cfa:    6990        .i      LDR      r0,[r2,#0x18]
        0x00000cfc:    0500        ..      LSLS     r0,r0,#20
        0x00000cfe:    0f06        ..      LSRS     r6,r0,#28
        0x00000d00:    6950        Pi      LDR      r0,[r2,#0x14]
        0x00000d02:    0180        ..      LSLS     r0,r0,#6
        0x00000d04:    0f80        ..      LSRS     r0,r0,#30
        0x00000d06:    d105        ..      BNE      0xd14 ; DrvUART_Open + 384
        0x00000d08:    f7fffda4    ....    BL       DrvSYS_GetExtClockFreq ; 0x854
        0x00000d0c:    e00b        ..      B        0xd26 ; DrvUART_Open + 402
        0x00000d0e:    480b        .H      LDR      r0,[pc,#44] ; [0xd3c] = 0xffff9802
        0x00000d10:    1d80        ..      ADDS     r0,r0,#6
        0x00000d12:    bd70        p.      POP      {r4-r6,pc}
        0x00000d14:    6950        Pi      LDR      r0,[r2,#0x14]
        0x00000d16:    0180        ..      LSLS     r0,r0,#6
        0x00000d18:    0f80        ..      LSRS     r0,r0,#30
        0x00000d1a:    2801        .(      CMP      r0,#1
        0x00000d1c:    d102        ..      BNE      0xd24 ; DrvUART_Open + 400
        0x00000d1e:    f7fffd9d    ....    BL       DrvSYS_GetPLLClockFreq ; 0x85c
        0x00000d22:    e000        ..      B        0xd26 ; DrvUART_Open + 402
        0x00000d24:    4809        .H      LDR      r0,[pc,#36] ; [0xd4c] = 0x1518000
        0x00000d26:    1c71        q.      ADDS     r1,r6,#1
        0x00000d28:    f7fff9fa    ....    BL       __aeabi_uidiv ; 0x120
        0x00000d2c:    462a        *F      MOV      r2,r5
        0x00000d2e:    6821        !h      LDR      r1,[r4,#0]
        0x00000d30:    f7fffa82    ....    BL       BaudRateCalculator ; 0x238
        0x00000d34:    2000        .       MOVS     r0,#0
        0x00000d36:    bd70        p.      POP      {r4-r6,pc}
    $d
        0x00000d38:    00100000    ....    DCD    1048576
        0x00000d3c:    ffff9802    ....    DCD    4294940674
        0x00000d40:    50000200    ...P    DCD    1342177792
        0x00000d44:    40050000    ...@    DCD    1074069504
        0x00000d48:    03000000    ....    DCD    50331648
        0x00000d4c:    01518000    ..Q.    DCD    22118400
    $t
    i.DrvUART_Write
    DrvUART_Write
        0x00000d50:    b570        p.      PUSH     {r4-r6,lr}
        0x00000d52:    4b0b        .K      LDR      r3,[pc,#44] ; [0xd80] = 0x40050000
        0x00000d54:    2501        .%      MOVS     r5,#1
        0x00000d56:    18c4        ..      ADDS     r4,r0,r3
        0x00000d58:    2300        .#      MOVS     r3,#0
        0x00000d5a:    07ad        ..      LSLS     r5,r5,#30
        0x00000d5c:    e00c        ..      B        0xd78 ; DrvUART_Write + 40
        0x00000d5e:    2000        .       MOVS     r0,#0
        0x00000d60:    e004        ..      B        0xd6c ; DrvUART_Write + 28
        0x00000d62:    1c40        @.      ADDS     r0,r0,#1
        0x00000d64:    42a8        .B      CMP      r0,r5
        0x00000d66:    d301        ..      BCC      0xd6c ; DrvUART_Write + 28
        0x00000d68:    4806        .H      LDR      r0,[pc,#24] ; [0xd84] = 0xffff9801
        0x00000d6a:    bd70        p.      POP      {r4-r6,pc}
        0x00000d6c:    69a6        .i      LDR      r6,[r4,#0x18]
        0x00000d6e:    00f6        ..      LSLS     r6,r6,#3
        0x00000d70:    d5f7        ..      BPL      0xd62 ; DrvUART_Write + 18
        0x00000d72:    5cc8        .\      LDRB     r0,[r1,r3]
        0x00000d74:    6020         `      STR      r0,[r4,#0]
        0x00000d76:    1c5b        [.      ADDS     r3,r3,#1
        0x00000d78:    4293        .B      CMP      r3,r2
        0x00000d7a:    d3f0        ..      BCC      0xd5e ; DrvUART_Write + 14
        0x00000d7c:    2000        .       MOVS     r0,#0
        0x00000d7e:    bd70        p.      POP      {r4-r6,pc}
    $d
        0x00000d80:    40050000    ...@    DCD    1074069504
        0x00000d84:    ffff9801    ....    DCD    4294940673
    $t
    i.EINT0_IRQHandler
    EINT0_IRQHandler
        0x00000d88:    2001        .       MOVS     r0,#1
        0x00000d8a:    4904        .I      LDR      r1,[pc,#16] ; [0xd9c] = 0x50004040
        0x00000d8c:    0380        ..      LSLS     r0,r0,#14
        0x00000d8e:    6208        .b      STR      r0,[r1,#0x20]
        0x00000d90:    4803        .H      LDR      r0,[pc,#12] ; [0xda0] = 0x20000674
        0x00000d92:    6880        .h      LDR      r0,[r0,#8]
        0x00000d94:    2800        .(      CMP      r0,#0
        0x00000d96:    d000        ..      BEQ      0xd9a ; EINT0_IRQHandler + 18
        0x00000d98:    4700        .G      BX       r0
        0x00000d9a:    4770        pG      BX       lr
    $d
        0x00000d9c:    50004040    @@.P    DCD    1342193728
        0x00000da0:    20000674    t..     DCD    536872564
    $t
    i.EINT1_IRQHandler
    EINT1_IRQHandler
        0x00000da4:    2001        .       MOVS     r0,#1
        0x00000da6:    4904        .I      LDR      r1,[pc,#16] ; [0xdb8] = 0x50004040
        0x00000da8:    03c0        ..      LSLS     r0,r0,#15
        0x00000daa:    6208        .b      STR      r0,[r1,#0x20]
        0x00000dac:    4803        .H      LDR      r0,[pc,#12] ; [0xdbc] = 0x20000674
        0x00000dae:    68c0        .h      LDR      r0,[r0,#0xc]
        0x00000db0:    2800        .(      CMP      r0,#0
        0x00000db2:    d000        ..      BEQ      0xdb6 ; EINT1_IRQHandler + 18
        0x00000db4:    4700        .G      BX       r0
        0x00000db6:    4770        pG      BX       lr
    $d
        0x00000db8:    50004040    @@.P    DCD    1342193728
        0x00000dbc:    20000674    t..     DCD    536872564
    $t
    i.GPAB_IRQHandler
    GPAB_IRQHandler
        0x00000dc0:    b430        0.      PUSH     {r4,r5}
        0x00000dc2:    4a09        .J      LDR      r2,[pc,#36] ; [0xde8] = 0x50004000
        0x00000dc4:    6a10        .j      LDR      r0,[r2,#0x20]
        0x00000dc6:    4b08        .K      LDR      r3,[pc,#32] ; [0xde8] = 0x50004000
        0x00000dc8:    3340        @3      ADDS     r3,r3,#0x40
        0x00000dca:    6a19        .j      LDR      r1,[r3,#0x20]
        0x00000dcc:    2403        .$      MOVS     r4,#3
        0x00000dce:    03a4        ..      LSLS     r4,r4,#14
        0x00000dd0:    43a1        .C      BICS     r1,r1,r4
        0x00000dd2:    6210        .b      STR      r0,[r2,#0x20]
        0x00000dd4:    6219        .b      STR      r1,[r3,#0x20]
        0x00000dd6:    4a05        .J      LDR      r2,[pc,#20] ; [0xdec] = 0x20000674
        0x00000dd8:    6812        .h      LDR      r2,[r2,#0]
        0x00000dda:    2a00        .*      CMP      r2,#0
        0x00000ddc:    d001        ..      BEQ      0xde2 ; GPAB_IRQHandler + 34
        0x00000dde:    bc30        0.      POP      {r4,r5}
        0x00000de0:    4710        .G      BX       r2
        0x00000de2:    bc30        0.      POP      {r4,r5}
        0x00000de4:    4770        pG      BX       lr
    $d
        0x00000de6:    0000        ..      DCW    0
        0x00000de8:    50004000    .@.P    DCD    1342193664
        0x00000dec:    20000674    t..     DCD    536872564
    $t
    i.GPCDE_IRQHandler
    GPCDE_IRQHandler
        0x00000df0:    b430        0.      PUSH     {r4,r5}
        0x00000df2:    4c09        .L      LDR      r4,[pc,#36] ; [0xe18] = 0x50004080
        0x00000df4:    6a20         j      LDR      r0,[r4,#0x20]
        0x00000df6:    4b08        .K      LDR      r3,[pc,#32] ; [0xe18] = 0x50004080
        0x00000df8:    3340        @3      ADDS     r3,r3,#0x40
        0x00000dfa:    6a19        .j      LDR      r1,[r3,#0x20]
        0x00000dfc:    4d06        .M      LDR      r5,[pc,#24] ; [0xe18] = 0x50004080
        0x00000dfe:    3580        .5      ADDS     r5,r5,#0x80
        0x00000e00:    6a2a        *j      LDR      r2,[r5,#0x20]
        0x00000e02:    6220         b      STR      r0,[r4,#0x20]
        0x00000e04:    6219        .b      STR      r1,[r3,#0x20]
        0x00000e06:    622a        *b      STR      r2,[r5,#0x20]
        0x00000e08:    4b04        .K      LDR      r3,[pc,#16] ; [0xe1c] = 0x20000674
        0x00000e0a:    685b        [h      LDR      r3,[r3,#4]
        0x00000e0c:    2b00        .+      CMP      r3,#0
        0x00000e0e:    d001        ..      BEQ      0xe14 ; GPCDE_IRQHandler + 36
        0x00000e10:    bc30        0.      POP      {r4,r5}
        0x00000e12:    4718        .G      BX       r3
        0x00000e14:    bc30        0.      POP      {r4,r5}
        0x00000e16:    4770        pG      BX       lr
    $d
        0x00000e18:    50004080    .@.P    DCD    1342193792
        0x00000e1c:    20000674    t..     DCD    536872564
    $t
    i.InitPWM
    InitPWM
        0x00000e20:    b5f0        ..      PUSH     {r4-r7,lr}
        0x00000e22:    4603        .F      MOV      r3,r0
        0x00000e24:    48b9        .H      LDR      r0,[pc,#740] ; [0x110c] = 0x40040000
        0x00000e26:    2405        .$      MOVS     r4,#5
        0x00000e28:    2504        .%      MOVS     r5,#4
        0x00000e2a:    0724        $.      LSLS     r4,r4,#28
        0x00000e2c:    49b6        .I      LDR      r1,[pc,#728] ; [0x1108] = 0x50000200
        0x00000e2e:    4eb7        .N      LDR      r6,[pc,#732] ; [0x110c] = 0x40040000
        0x00000e30:    2708        .'      MOVS     r7,#8
        0x00000e32:    4ab7        .J      LDR      r2,[pc,#732] ; [0x1110] = 0xffff
        0x00000e34:    3040        @0      ADDS     r0,r0,#0x40
        0x00000e36:    f000fcdb    ....    BL       __ARM_common_switch8 ; 0x17f0
    $d
        0x00000e3a:    0508        ..      DCW    1288
        0x00000e3c:    af845a31    1Z..    DCD    2944686641
        0x00000e40:    30fdfed9    ...0    DCD    821952217
    $t
        0x00000e44:    2305        .#      MOVS     r3,#5
        0x00000e46:    071b        ..      LSLS     r3,r3,#28
        0x00000e48:    6b1b        .k      LDR      r3,[r3,#0x30]
        0x00000e4a:    2401        .$      MOVS     r4,#1
        0x00000e4c:    0324        $.      LSLS     r4,r4,#12
        0x00000e4e:    4323        #C      ORRS     r3,r3,r4
        0x00000e50:    2405        .$      MOVS     r4,#5
        0x00000e52:    0724        $.      LSLS     r4,r4,#28
        0x00000e54:    6323        #c      STR      r3,[r4,#0x30]
        0x00000e56:    694b        Ki      LDR      r3,[r1,#0x14]
        0x00000e58:    2403        .$      MOVS     r4,#3
        0x00000e5a:    0724        $.      LSLS     r4,r4,#28
        0x00000e5c:    43a3        .C      BICS     r3,r3,r4
        0x00000e5e:    614b        Ka      STR      r3,[r1,#0x14]
        0x00000e60:    688b        .h      LDR      r3,[r1,#8]
        0x00000e62:    2401        .$      MOVS     r4,#1
        0x00000e64:    0524        $.      LSLS     r4,r4,#20
        0x00000e66:    4323        #C      ORRS     r3,r3,r4
        0x00000e68:    608b        .`      STR      r3,[r1,#8]
        0x00000e6a:    6831        1h      LDR      r1,[r6,#0]
        0x00000e6c:    0a09        ..      LSRS     r1,r1,#8
        0x00000e6e:    0209        ..      LSLS     r1,r1,#8
        0x00000e70:    1c49        I.      ADDS     r1,r1,#1
        0x00000e72:    6031        1`      STR      r1,[r6,#0]
        0x00000e74:    6871        qh      LDR      r1,[r6,#4]
        0x00000e76:    08c9        ..      LSRS     r1,r1,#3
        0x00000e78:    00c9        ..      LSLS     r1,r1,#3
        0x00000e7a:    6071        q`      STR      r1,[r6,#4]
        0x00000e7c:    68b1        .h      LDR      r1,[r6,#8]
        0x00000e7e:    4339        9C      ORRS     r1,r1,r7
        0x00000e80:    60b1        .`      STR      r1,[r6,#8]
        0x00000e82:    60f2        .`      STR      r2,[r6,#0xc]
        0x00000e84:    6132        2a      STR      r2,[r6,#0x10]
        0x00000e86:    68b1        .h      LDR      r1,[r6,#8]
        0x00000e88:    43a9        .C      BICS     r1,r1,r5
        0x00000e8a:    60b1        .`      STR      r1,[r6,#8]
        0x00000e8c:    68b2        .h      LDR      r2,[r6,#8]
        0x00000e8e:    2101        .!      MOVS     r1,#1
        0x00000e90:    430a        .C      ORRS     r2,r2,r1
        0x00000e92:    60b2        .`      STR      r2,[r6,#8]
        0x00000e94:    6bc2        .k      LDR      r2,[r0,#0x3c]
        0x00000e96:    430a        .C      ORRS     r2,r2,r1
        0x00000e98:    63c2        .c      STR      r2,[r0,#0x3c]
        0x00000e9a:    bdf0        ..      POP      {r4-r7,pc}
        0x00000e9c:    6b23        #k      LDR      r3,[r4,#0x30]
        0x00000e9e:    2501        .%      MOVS     r5,#1
        0x00000ea0:    036d        m.      LSLS     r5,r5,#13
        0x00000ea2:    432b        +C      ORRS     r3,r3,r5
        0x00000ea4:    6323        #c      STR      r3,[r4,#0x30]
        0x00000ea6:    694b        Ki      LDR      r3,[r1,#0x14]
        0x00000ea8:    2403        .$      MOVS     r4,#3
        0x00000eaa:    0724        $.      LSLS     r4,r4,#28
        0x00000eac:    43a3        .C      BICS     r3,r3,r4
        0x00000eae:    614b        Ka      STR      r3,[r1,#0x14]
        0x00000eb0:    688b        .h      LDR      r3,[r1,#8]
        0x00000eb2:    01ec        ..      LSLS     r4,r5,#7
        0x00000eb4:    4323        #C      ORRS     r3,r3,r4
        0x00000eb6:    608b        .`      STR      r3,[r1,#8]
        0x00000eb8:    6831        1h      LDR      r1,[r6,#0]
        0x00000eba:    0a09        ..      LSRS     r1,r1,#8
        0x00000ebc:    0209        ..      LSLS     r1,r1,#8
        0x00000ebe:    1c49        I.      ADDS     r1,r1,#1
        0x00000ec0:    6031        1`      STR      r1,[r6,#0]
        0x00000ec2:    6871        qh      LDR      r1,[r6,#4]
        0x00000ec4:    2370        p#      MOVS     r3,#0x70
        0x00000ec6:    4399        .C      BICS     r1,r1,r3
        0x00000ec8:    6071        q`      STR      r1,[r6,#4]
        0x00000eca:    68b1        .h      LDR      r1,[r6,#8]
        0x00000ecc:    1263        c.      ASRS     r3,r4,#9
        0x00000ece:    4319        .C      ORRS     r1,r1,r3
        0x00000ed0:    60b1        .`      STR      r1,[r6,#8]
        0x00000ed2:    61b2        .a      STR      r2,[r6,#0x18]
        0x00000ed4:    61f2        .a      STR      r2,[r6,#0x1c]
        0x00000ed6:    68b1        .h      LDR      r1,[r6,#8]
        0x00000ed8:    105a        Z.      ASRS     r2,r3,#1
        0x00000eda:    4391        .C      BICS     r1,r1,r2
        0x00000edc:    60b1        .`      STR      r1,[r6,#8]
        0x00000ede:    68b2        .h      LDR      r2,[r6,#8]
        0x00000ee0:    10d9        ..      ASRS     r1,r3,#3
        0x00000ee2:    430a        .C      ORRS     r2,r2,r1
        0x00000ee4:    60b2        .`      STR      r2,[r6,#8]
        0x00000ee6:    6bc1        .k      LDR      r1,[r0,#0x3c]
        0x00000ee8:    2202        ."      MOVS     r2,#2
        0x00000eea:    4311        .C      ORRS     r1,r1,r2
        0x00000eec:    e052        R.      B        0xf94 ; InitPWM + 372
        0x00000eee:    6b23        #k      LDR      r3,[r4,#0x30]
        0x00000ef0:    2701        .'      MOVS     r7,#1
        0x00000ef2:    03bf        ..      LSLS     r7,r7,#14
        0x00000ef4:    433b        ;C      ORRS     r3,r3,r7
        0x00000ef6:    6323        #c      STR      r3,[r4,#0x30]
        0x00000ef8:    694b        Ki      LDR      r3,[r1,#0x14]
        0x00000efa:    009b        ..      LSLS     r3,r3,#2
        0x00000efc:    089b        ..      LSRS     r3,r3,#2
        0x00000efe:    614b        Ka      STR      r3,[r1,#0x14]
        0x00000f00:    688b        .h      LDR      r3,[r1,#8]
        0x00000f02:    01fc        ..      LSLS     r4,r7,#7
        0x00000f04:    4323        #C      ORRS     r3,r3,r4
        0x00000f06:    608b        .`      STR      r3,[r1,#8]
        0x00000f08:    6831        1h      LDR      r1,[r6,#0]
        0x00000f0a:    23ff        .#      MOVS     r3,#0xff
        0x00000f0c:    021b        ..      LSLS     r3,r3,#8
        0x00000f0e:    4399        .C      BICS     r1,r1,r3
        0x00000f10:    31ff        .1      ADDS     r1,r1,#0xff
        0x00000f12:    3101        .1      ADDS     r1,#1
        0x00000f14:    6031        1`      STR      r1,[r6,#0]
        0x00000f16:    6871        qh      LDR      r1,[r6,#4]
        0x00000f18:    2307        .#      MOVS     r3,#7
        0x00000f1a:    021b        ..      LSLS     r3,r3,#8
        0x00000f1c:    4399        .C      BICS     r1,r1,r3
        0x00000f1e:    6071        q`      STR      r1,[r6,#4]
        0x00000f20:    68b1        .h      LDR      r1,[r6,#8]
        0x00000f22:    10a3        ..      ASRS     r3,r4,#2
        0x00000f24:    4319        .C      ORRS     r1,r1,r3
        0x00000f26:    60b1        .`      STR      r1,[r6,#8]
        0x00000f28:    6272        rb      STR      r2,[r6,#0x24]
        0x00000f2a:    62b2        .b      STR      r2,[r6,#0x28]
        0x00000f2c:    68b1        .h      LDR      r1,[r6,#8]
        0x00000f2e:    105a        Z.      ASRS     r2,r3,#1
        0x00000f30:    4391        .C      BICS     r1,r1,r2
        0x00000f32:    60b1        .`      STR      r1,[r6,#8]
        0x00000f34:    68b1        .h      LDR      r1,[r6,#8]
        0x00000f36:    1092        ..      ASRS     r2,r2,#2
        0x00000f38:    4311        .C      ORRS     r1,r1,r2
        0x00000f3a:    60b1        .`      STR      r1,[r6,#8]
        0x00000f3c:    6bc1        .k      LDR      r1,[r0,#0x3c]
        0x00000f3e:    4329        )C      ORRS     r1,r1,r5
        0x00000f40:    e028        (.      B        0xf94 ; InitPWM + 372
        0x00000f42:    6b23        #k      LDR      r3,[r4,#0x30]
        0x00000f44:    2501        .%      MOVS     r5,#1
        0x00000f46:    03ed        ..      LSLS     r5,r5,#15
        0x00000f48:    432b        +C      ORRS     r3,r3,r5
        0x00000f4a:    6323        #c      STR      r3,[r4,#0x30]
        0x00000f4c:    694b        Ki      LDR      r3,[r1,#0x14]
        0x00000f4e:    009b        ..      LSLS     r3,r3,#2
        0x00000f50:    089b        ..      LSRS     r3,r3,#2
        0x00000f52:    614b        Ka      STR      r3,[r1,#0x14]
        0x00000f54:    688b        .h      LDR      r3,[r1,#8]
        0x00000f56:    01ac        ..      LSLS     r4,r5,#6
        0x00000f58:    4323        #C      ORRS     r3,r3,r4
        0x00000f5a:    608b        .`      STR      r3,[r1,#8]
        0x00000f5c:    6831        1h      LDR      r1,[r6,#0]
        0x00000f5e:    23ff        .#      MOVS     r3,#0xff
        0x00000f60:    021b        ..      LSLS     r3,r3,#8
        0x00000f62:    4399        .C      BICS     r1,r1,r3
        0x00000f64:    31ff        .1      ADDS     r1,r1,#0xff
        0x00000f66:    3101        .1      ADDS     r1,#1
        0x00000f68:    6031        1`      STR      r1,[r6,#0]
        0x00000f6a:    6871        qh      LDR      r1,[r6,#4]
        0x00000f6c:    2307        .#      MOVS     r3,#7
        0x00000f6e:    031b        ..      LSLS     r3,r3,#12
        0x00000f70:    4399        .C      BICS     r1,r1,r3
        0x00000f72:    6071        q`      STR      r1,[r6,#4]
        0x00000f74:    68b1        .h      LDR      r1,[r6,#8]
        0x00000f76:    01a3        ..      LSLS     r3,r4,#6
        0x00000f78:    4319        .C      ORRS     r1,r1,r3
        0x00000f7a:    60b1        .`      STR      r1,[r6,#8]
        0x00000f7c:    6332        2c      STR      r2,[r6,#0x30]
        0x00000f7e:    6372        rc      STR      r2,[r6,#0x34]
        0x00000f80:    68b1        .h      LDR      r1,[r6,#8]
        0x00000f82:    105a        Z.      ASRS     r2,r3,#1
        0x00000f84:    4391        .C      BICS     r1,r1,r2
        0x00000f86:    60b1        .`      STR      r1,[r6,#8]
        0x00000f88:    68b1        .h      LDR      r1,[r6,#8]
        0x00000f8a:    1092        ..      ASRS     r2,r2,#2
        0x00000f8c:    4311        .C      ORRS     r1,r1,r2
        0x00000f8e:    60b1        .`      STR      r1,[r6,#8]
        0x00000f90:    6bc1        .k      LDR      r1,[r0,#0x3c]
        0x00000f92:    4339        9C      ORRS     r1,r1,r7
        0x00000f94:    63c1        .c      STR      r1,[r0,#0x3c]
        0x00000f96:    bdf0        ..      POP      {r4-r7,pc}
        0x00000f98:    6b60        `k      LDR      r0,[r4,#0x34]
        0x00000f9a:    2301        .#      MOVS     r3,#1
        0x00000f9c:    02db        ..      LSLS     r3,r3,#11
        0x00000f9e:    4318        .C      ORRS     r0,r0,r3
        0x00000fa0:    6360        `c      STR      r0,[r4,#0x34]
        0x00000fa2:    69c8        .i      LDR      r0,[r1,#0x1c]
        0x00000fa4:    2330        0#      MOVS     r3,#0x30
        0x00000fa6:    4398        .C      BICS     r0,r0,r3
        0x00000fa8:    61c8        .a      STR      r0,[r1,#0x1c]
        0x00000faa:    6888        .h      LDR      r0,[r1,#8]
        0x00000fac:    2301        .#      MOVS     r3,#1
        0x00000fae:    059b        ..      LSLS     r3,r3,#22
        0x00000fb0:    4318        .C      ORRS     r0,r0,r3
        0x00000fb2:    6088        .`      STR      r0,[r1,#8]
        0x00000fb4:    4857        WH      LDR      r0,[pc,#348] ; [0x1114] = 0x40140000
        0x00000fb6:    6801        .h      LDR      r1,[r0,#0]
        0x00000fb8:    0a09        ..      LSRS     r1,r1,#8
        0x00000fba:    0209        ..      LSLS     r1,r1,#8
        0x00000fbc:    1c49        I.      ADDS     r1,r1,#1
        0x00000fbe:    6001        .`      STR      r1,[r0,#0]
        0x00000fc0:    6841        Ah      LDR      r1,[r0,#4]
        0x00000fc2:    08c9        ..      LSRS     r1,r1,#3
        0x00000fc4:    00c9        ..      LSLS     r1,r1,#3
        0x00000fc6:    6041        A`      STR      r1,[r0,#4]
        0x00000fc8:    6881        .h      LDR      r1,[r0,#8]
        0x00000fca:    4339        9C      ORRS     r1,r1,r7
        0x00000fcc:    6081        .`      STR      r1,[r0,#8]
        0x00000fce:    60c2        .`      STR      r2,[r0,#0xc]
        0x00000fd0:    6102        .a      STR      r2,[r0,#0x10]
        0x00000fd2:    6881        .h      LDR      r1,[r0,#8]
        0x00000fd4:    43a9        .C      BICS     r1,r1,r5
        0x00000fd6:    6081        .`      STR      r1,[r0,#8]
        0x00000fd8:    6882        .h      LDR      r2,[r0,#8]
        0x00000fda:    2101        .!      MOVS     r1,#1
        0x00000fdc:    430a        .C      ORRS     r2,r2,r1
        0x00000fde:    6082        .`      STR      r2,[r0,#8]
        0x00000fe0:    4a4c        LJ      LDR      r2,[pc,#304] ; [0x1114] = 0x40140000
        0x00000fe2:    3240        @2      ADDS     r2,r2,#0x40
        0x00000fe4:    6bd0        .k      LDR      r0,[r2,#0x3c]
        0x00000fe6:    4308        .C      ORRS     r0,r0,r1
        0x00000fe8:    63d0        .c      STR      r0,[r2,#0x3c]
        0x00000fea:    bdf0        ..      POP      {r4-r7,pc}
        0x00000fec:    4b4a        JK      LDR      r3,[pc,#296] ; [0x1118] = 0x50000040
        0x00000fee:    6818        .h      LDR      r0,[r3,#0]
        0x00000ff0:    2420         $      MOVS     r4,#0x20
        0x00000ff2:    4320         C      ORRS     r0,r0,r4
        0x00000ff4:    6018        .`      STR      r0,[r3,#0]
        0x00000ff6:    6888        .h      LDR      r0,[r1,#8]
        0x00000ff8:    041b        ..      LSLS     r3,r3,#16
        0x00000ffa:    4318        .C      ORRS     r0,r0,r3
        0x00000ffc:    6088        .`      STR      r0,[r1,#8]
        0x00000ffe:    69c8        .i      LDR      r0,[r1,#0x1c]
        0x00001000:    2430        0$      MOVS     r4,#0x30
        0x00001002:    43a0        .C      BICS     r0,r0,r4
        0x00001004:    61c8        .a      STR      r0,[r1,#0x1c]
        0x00001006:    6888        .h      LDR      r0,[r1,#8]
        0x00001008:    4318        .C      ORRS     r0,r0,r3
        0x0000100a:    6088        .`      STR      r0,[r1,#8]
        0x0000100c:    4841        AH      LDR      r0,[pc,#260] ; [0x1114] = 0x40140000
        0x0000100e:    6801        .h      LDR      r1,[r0,#0]
        0x00001010:    0a09        ..      LSRS     r1,r1,#8
        0x00001012:    0209        ..      LSLS     r1,r1,#8
        0x00001014:    1c49        I.      ADDS     r1,r1,#1
        0x00001016:    6001        .`      STR      r1,[r0,#0]
        0x00001018:    6841        Ah      LDR      r1,[r0,#4]
        0x0000101a:    2370        p#      MOVS     r3,#0x70
        0x0000101c:    4399        .C      BICS     r1,r1,r3
        0x0000101e:    6041        A`      STR      r1,[r0,#4]
        0x00001020:    6881        .h      LDR      r1,[r0,#8]
        0x00001022:    2301        .#      MOVS     r3,#1
        0x00001024:    02db        ..      LSLS     r3,r3,#11
        0x00001026:    4319        .C      ORRS     r1,r1,r3
        0x00001028:    6081        .`      STR      r1,[r0,#8]
        0x0000102a:    6182        .a      STR      r2,[r0,#0x18]
        0x0000102c:    61c2        .a      STR      r2,[r0,#0x1c]
        0x0000102e:    6881        .h      LDR      r1,[r0,#8]
        0x00001030:    105a        Z.      ASRS     r2,r3,#1
        0x00001032:    e001        ..      B        0x1038 ; InitPWM + 536
        0x00001034:    e039        9.      B        0x10aa ; InitPWM + 650
        0x00001036:    e00b        ..      B        0x1050 ; InitPWM + 560
        0x00001038:    4391        .C      BICS     r1,r1,r2
        0x0000103a:    6081        .`      STR      r1,[r0,#8]
        0x0000103c:    6881        .h      LDR      r1,[r0,#8]
        0x0000103e:    1582        ..      ASRS     r2,r0,#22
        0x00001040:    4311        .C      ORRS     r1,r1,r2
        0x00001042:    6081        .`      STR      r1,[r0,#8]
        0x00001044:    4933        3I      LDR      r1,[pc,#204] ; [0x1114] = 0x40140000
        0x00001046:    3140        @1      ADDS     r1,r1,#0x40
        0x00001048:    6bc8        .k      LDR      r0,[r1,#0x3c]
        0x0000104a:    2202        ."      MOVS     r2,#2
        0x0000104c:    4310        .C      ORRS     r0,r0,r2
        0x0000104e:    e058        X.      B        0x1102 ; InitPWM + 738
        0x00001050:    4b31        1K      LDR      r3,[pc,#196] ; [0x1118] = 0x50000040
        0x00001052:    6818        .h      LDR      r0,[r3,#0]
        0x00001054:    2401        .$      MOVS     r4,#1
        0x00001056:    4320         C      ORRS     r0,r0,r4
        0x00001058:    6018        .`      STR      r0,[r3,#0]
        0x0000105a:    69c8        .i      LDR      r0,[r1,#0x1c]
        0x0000105c:    23c0        .#      MOVS     r3,#0xc0
        0x0000105e:    4398        .C      BICS     r0,r0,r3
        0x00001060:    61c8        .a      STR      r0,[r1,#0x1c]
        0x00001062:    6888        .h      LDR      r0,[r1,#8]
        0x00001064:    05e3        ..      LSLS     r3,r4,#23
        0x00001066:    4318        .C      ORRS     r0,r0,r3
        0x00001068:    6088        .`      STR      r0,[r1,#8]
        0x0000106a:    482a        *H      LDR      r0,[pc,#168] ; [0x1114] = 0x40140000
        0x0000106c:    6801        .h      LDR      r1,[r0,#0]
        0x0000106e:    23ff        .#      MOVS     r3,#0xff
        0x00001070:    021b        ..      LSLS     r3,r3,#8
        0x00001072:    4399        .C      BICS     r1,r1,r3
        0x00001074:    31ff        .1      ADDS     r1,r1,#0xff
        0x00001076:    3101        .1      ADDS     r1,#1
        0x00001078:    6001        .`      STR      r1,[r0,#0]
        0x0000107a:    6841        Ah      LDR      r1,[r0,#4]
        0x0000107c:    2307        .#      MOVS     r3,#7
        0x0000107e:    021b        ..      LSLS     r3,r3,#8
        0x00001080:    4399        .C      BICS     r1,r1,r3
        0x00001082:    6041        A`      STR      r1,[r0,#4]
        0x00001084:    6881        .h      LDR      r1,[r0,#8]
        0x00001086:    04e3        ..      LSLS     r3,r4,#19
        0x00001088:    4319        .C      ORRS     r1,r1,r3
        0x0000108a:    6081        .`      STR      r1,[r0,#8]
        0x0000108c:    6242        Bb      STR      r2,[r0,#0x24]
        0x0000108e:    6282        .b      STR      r2,[r0,#0x28]
        0x00001090:    6881        .h      LDR      r1,[r0,#8]
        0x00001092:    105a        Z.      ASRS     r2,r3,#1
        0x00001094:    4391        .C      BICS     r1,r1,r2
        0x00001096:    6081        .`      STR      r1,[r0,#8]
        0x00001098:    6881        .h      LDR      r1,[r0,#8]
        0x0000109a:    1092        ..      ASRS     r2,r2,#2
        0x0000109c:    4311        .C      ORRS     r1,r1,r2
        0x0000109e:    6081        .`      STR      r1,[r0,#8]
        0x000010a0:    491c        .I      LDR      r1,[pc,#112] ; [0x1114] = 0x40140000
        0x000010a2:    3140        @1      ADDS     r1,r1,#0x40
        0x000010a4:    6bc8        .k      LDR      r0,[r1,#0x3c]
        0x000010a6:    4328        (C      ORRS     r0,r0,r5
        0x000010a8:    e02b        +.      B        0x1102 ; InitPWM + 738
        0x000010aa:    481b        .H      LDR      r0,[pc,#108] ; [0x1118] = 0x50000040
        0x000010ac:    6803        .h      LDR      r3,[r0,#0]
        0x000010ae:    2402        .$      MOVS     r4,#2
        0x000010b0:    4323        #C      ORRS     r3,r3,r4
        0x000010b2:    6003        .`      STR      r3,[r0,#0]
        0x000010b4:    69c8        .i      LDR      r0,[r1,#0x1c]
        0x000010b6:    23c0        .#      MOVS     r3,#0xc0
        0x000010b8:    4398        .C      BICS     r0,r0,r3
        0x000010ba:    61c8        .a      STR      r0,[r1,#0x1c]
        0x000010bc:    6888        .h      LDR      r0,[r1,#8]
        0x000010be:    05a3        ..      LSLS     r3,r4,#22
        0x000010c0:    4318        .C      ORRS     r0,r0,r3
        0x000010c2:    6088        .`      STR      r0,[r1,#8]
        0x000010c4:    4813        .H      LDR      r0,[pc,#76] ; [0x1114] = 0x40140000
        0x000010c6:    6801        .h      LDR      r1,[r0,#0]
        0x000010c8:    23ff        .#      MOVS     r3,#0xff
        0x000010ca:    021b        ..      LSLS     r3,r3,#8
        0x000010cc:    4399        .C      BICS     r1,r1,r3
        0x000010ce:    31ff        .1      ADDS     r1,r1,#0xff
        0x000010d0:    3101        .1      ADDS     r1,#1
        0x000010d2:    6001        .`      STR      r1,[r0,#0]
        0x000010d4:    6841        Ah      LDR      r1,[r0,#4]
        0x000010d6:    2307        .#      MOVS     r3,#7
        0x000010d8:    031b        ..      LSLS     r3,r3,#12
        0x000010da:    4399        .C      BICS     r1,r1,r3
        0x000010dc:    6041        A`      STR      r1,[r0,#4]
        0x000010de:    6881        .h      LDR      r1,[r0,#8]
        0x000010e0:    06a3        ..      LSLS     r3,r4,#26
        0x000010e2:    4319        .C      ORRS     r1,r1,r3
        0x000010e4:    6081        .`      STR      r1,[r0,#8]
        0x000010e6:    6302        .c      STR      r2,[r0,#0x30]
        0x000010e8:    6342        Bc      STR      r2,[r0,#0x34]
        0x000010ea:    6881        .h      LDR      r1,[r0,#8]
        0x000010ec:    105a        Z.      ASRS     r2,r3,#1
        0x000010ee:    4391        .C      BICS     r1,r1,r2
        0x000010f0:    6081        .`      STR      r1,[r0,#8]
        0x000010f2:    6881        .h      LDR      r1,[r0,#8]
        0x000010f4:    1092        ..      ASRS     r2,r2,#2
        0x000010f6:    4311        .C      ORRS     r1,r1,r2
        0x000010f8:    6081        .`      STR      r1,[r0,#8]
        0x000010fa:    4906        .I      LDR      r1,[pc,#24] ; [0x1114] = 0x40140000
        0x000010fc:    3140        @1      ADDS     r1,r1,#0x40
        0x000010fe:    6bc8        .k      LDR      r0,[r1,#0x3c]
        0x00001100:    4338        8C      ORRS     r0,r0,r7
        0x00001102:    63c8        .c      STR      r0,[r1,#0x3c]
        0x00001104:    bdf0        ..      POP      {r4-r7,pc}
    $d
        0x00001106:    0000        ..      DCW    0
        0x00001108:    50000200    ...P    DCD    1342177792
        0x0000110c:    40040000    ...@    DCD    1074003968
        0x00001110:    0000ffff    ....    DCD    65535
        0x00001114:    40140000    ...@    DCD    1075052544
        0x00001118:    50000040    @..P    DCD    1342177344
    $t
    i.InitTIMER0
    InitTIMER0
        0x0000111c:    4813        .H      LDR      r0,[pc,#76] ; [0x116c] = 0x50000200
        0x0000111e:    6941        Ai      LDR      r1,[r0,#0x14]
        0x00001120:    2207        ."      MOVS     r2,#7
        0x00001122:    0212        ..      LSLS     r2,r2,#8
        0x00001124:    4391        .C      BICS     r1,r1,r2
        0x00001126:    6141        Aa      STR      r1,[r0,#0x14]
        0x00001128:    6881        .h      LDR      r1,[r0,#8]
        0x0000112a:    2204        ."      MOVS     r2,#4
        0x0000112c:    4311        .C      ORRS     r1,r1,r2
        0x0000112e:    6081        .`      STR      r1,[r0,#8]
        0x00001130:    480f        .H      LDR      r0,[pc,#60] ; [0x1170] = 0x40010000
        0x00001132:    6801        .h      LDR      r1,[r0,#0]
        0x00001134:    2203        ."      MOVS     r2,#3
        0x00001136:    06d2        ..      LSLS     r2,r2,#27
        0x00001138:    4391        .C      BICS     r1,r1,r2
        0x0000113a:    02c2        ..      LSLS     r2,r0,#11
        0x0000113c:    1889        ..      ADDS     r1,r1,r2
        0x0000113e:    6001        .`      STR      r1,[r0,#0]
        0x00001140:    6801        .h      LDR      r1,[r0,#0]
        0x00001142:    22ff        ."      MOVS     r2,#0xff
        0x00001144:    4311        .C      ORRS     r1,r1,r2
        0x00001146:    6001        .`      STR      r1,[r0,#0]
        0x00001148:    490a        .I      LDR      r1,[pc,#40] ; [0x1174] = 0xb71b
        0x0000114a:    6041        A`      STR      r1,[r0,#4]
        0x0000114c:    6801        .h      LDR      r1,[r0,#0]
        0x0000114e:    0342        B.      LSLS     r2,r0,#13
        0x00001150:    4311        .C      ORRS     r1,r1,r2
        0x00001152:    6001        .`      STR      r1,[r0,#0]
        0x00001154:    6881        .h      LDR      r1,[r0,#8]
        0x00001156:    2201        ."      MOVS     r2,#1
        0x00001158:    4311        .C      ORRS     r1,r1,r2
        0x0000115a:    6081        .`      STR      r1,[r0,#8]
        0x0000115c:    4a06        .J      LDR      r2,[pc,#24] ; [0x1178] = 0xe000e100
        0x0000115e:    1581        ..      ASRS     r1,r0,#22
        0x00001160:    6011        .`      STR      r1,[r2,#0]
        0x00001162:    6801        .h      LDR      r1,[r0,#0]
        0x00001164:    0282        ..      LSLS     r2,r0,#10
        0x00001166:    4311        .C      ORRS     r1,r1,r2
        0x00001168:    6001        .`      STR      r1,[r0,#0]
        0x0000116a:    4770        pG      BX       lr
    $d
        0x0000116c:    50000200    ...P    DCD    1342177792
        0x00001170:    40010000    ...@    DCD    1073807360
        0x00001174:    0000b71b    ....    DCD    46875
        0x00001178:    e000e100    ....    DCD    3758153984
    $t
    i.Init_GPIO_SR04
    Init_GPIO_SR04
        0x0000117c:    4807        .H      LDR      r0,[pc,#28] ; [0x119c] = 0x50004040
        0x0000117e:    6801        .h      LDR      r1,[r0,#0]
        0x00001180:    2230        0"      MOVS     r2,#0x30
        0x00001182:    4391        .C      BICS     r1,r1,r2
        0x00001184:    6001        .`      STR      r1,[r0,#0]
        0x00001186:    6801        .h      LDR      r1,[r0,#0]
        0x00001188:    0112        ..      LSLS     r2,r2,#4
        0x0000118a:    4391        .C      BICS     r1,r1,r2
        0x0000118c:    31ff        .1      ADDS     r1,r1,#0xff
        0x0000118e:    3101        .1      ADDS     r1,#1
        0x00001190:    6001        .`      STR      r1,[r0,#0]
        0x00001192:    4903        .I      LDR      r1,[pc,#12] ; [0x11a0] = 0x50004240
        0x00001194:    2000        .       MOVS     r0,#0
        0x00001196:    6108        .a      STR      r0,[r1,#0x10]
        0x00001198:    4770        pG      BX       lr
    $d
        0x0000119a:    0000        ..      DCW    0
        0x0000119c:    50004040    @@.P    DCD    1342193728
        0x000011a0:    50004240    @B.P    DCD    1342194240
    $t
    i.Init_TMR2
    Init_TMR2
        0x000011a4:    2005        .       MOVS     r0,#5
        0x000011a6:    0700        ..      LSLS     r0,r0,#28
        0x000011a8:    6b41        Ak      LDR      r1,[r0,#0x34]
        0x000011aa:    2204        ."      MOVS     r2,#4
        0x000011ac:    4311        .C      ORRS     r1,r1,r2
        0x000011ae:    6341        Ac      STR      r1,[r0,#0x34]
        0x000011b0:    4a1c        .J      LDR      r2,[pc,#112] ; [0x1224] = 0x50000040
        0x000011b2:    6911        .i      LDR      r1,[r2,#0x10]
        0x000011b4:    0513        ..      LSLS     r3,r2,#20
        0x000011b6:    4319        .C      ORRS     r1,r1,r3
        0x000011b8:    6111        .a      STR      r1,[r2,#0x10]
        0x000011ba:    68c2        .h      LDR      r2,[r0,#0xc]
        0x000011bc:    2110        .!      MOVS     r1,#0x10
        0x000011be:    430a        .C      ORRS     r2,r2,r1
        0x000011c0:    60c2        .`      STR      r2,[r0,#0xc]
        0x000011c2:    68c2        .h      LDR      r2,[r0,#0xc]
        0x000011c4:    438a        .C      BICS     r2,r2,r1
        0x000011c6:    60c2        .`      STR      r2,[r0,#0xc]
        0x000011c8:    4817        .H      LDR      r0,[pc,#92] ; [0x1228] = 0x50000200
        0x000011ca:    6942        Bi      LDR      r2,[r0,#0x14]
        0x000011cc:    2307        .#      MOVS     r3,#7
        0x000011ce:    041b        ..      LSLS     r3,r3,#16
        0x000011d0:    439a        .C      BICS     r2,r2,r3
        0x000011d2:    6142        Ba      STR      r2,[r0,#0x14]
        0x000011d4:    6882        .h      LDR      r2,[r0,#8]
        0x000011d6:    430a        .C      ORRS     r2,r2,r1
        0x000011d8:    6082        .`      STR      r2,[r0,#8]
        0x000011da:    4815        .H      LDR      r0,[pc,#84] ; [0x1230] = 0x40110000
        0x000011dc:    4a13        .J      LDR      r2,[pc,#76] ; [0x122c] = 0xffffff
        0x000011de:    6042        B`      STR      r2,[r0,#4]
        0x000011e0:    6802        .h      LDR      r2,[r0,#0]
        0x000011e2:    0a12        ..      LSRS     r2,r2,#8
        0x000011e4:    0212        ..      LSLS     r2,r2,#8
        0x000011e6:    320b        .2      ADDS     r2,r2,#0xb
        0x000011e8:    6002        .`      STR      r2,[r0,#0]
        0x000011ea:    6802        .h      LDR      r2,[r0,#0]
        0x000011ec:    2303        .#      MOVS     r3,#3
        0x000011ee:    06db        ..      LSLS     r3,r3,#27
        0x000011f0:    439a        .C      BICS     r2,r2,r3
        0x000011f2:    6002        .`      STR      r2,[r0,#0]
        0x000011f4:    6942        Bi      LDR      r2,[r0,#0x14]
        0x000011f6:    2308        .#      MOVS     r3,#8
        0x000011f8:    431a        .C      ORRS     r2,r2,r3
        0x000011fa:    6142        Ba      STR      r2,[r0,#0x14]
        0x000011fc:    6942        Bi      LDR      r2,[r0,#0x14]
        0x000011fe:    438a        .C      BICS     r2,r2,r1
        0x00001200:    6142        Ba      STR      r2,[r0,#0x14]
        0x00001202:    6941        Ai      LDR      r1,[r0,#0x14]
        0x00001204:    2206        ."      MOVS     r2,#6
        0x00001206:    4391        .C      BICS     r1,r1,r2
        0x00001208:    1d09        ..      ADDS     r1,r1,#4
        0x0000120a:    6141        Aa      STR      r1,[r0,#0x14]
        0x0000120c:    6941        Ai      LDR      r1,[r0,#0x14]
        0x0000120e:    2220         "      MOVS     r2,#0x20
        0x00001210:    4311        .C      ORRS     r1,r1,r2
        0x00001212:    6141        Aa      STR      r1,[r0,#0x14]
        0x00001214:    6981        .i      LDR      r1,[r0,#0x18]
        0x00001216:    2201        ."      MOVS     r2,#1
        0x00001218:    4311        .C      ORRS     r1,r1,r2
        0x0000121a:    6181        .a      STR      r1,[r0,#0x18]
        0x0000121c:    4905        .I      LDR      r1,[pc,#20] ; [0x1234] = 0xe000e100
        0x0000121e:    0290        ..      LSLS     r0,r2,#10
        0x00001220:    6008        .`      STR      r0,[r1,#0]
        0x00001222:    4770        pG      BX       lr
    $d
        0x00001224:    50000040    @..P    DCD    1342177344
        0x00001228:    50000200    ...P    DCD    1342177792
        0x0000122c:    00ffffff    ....    DCD    16777215
        0x00001230:    40110000    ...@    DCD    1074855936
        0x00001234:    e000e100    ....    DCD    3758153984
    $t
    i.Initial_panel
    Initial_panel
        0x00001238:    4a3d        =J      LDR      r2,[pc,#244] ; [0x1330] = 0x50000200
        0x0000123a:    6890        .h      LDR      r0,[r2,#8]
        0x0000123c:    0191        ..      LSLS     r1,r2,#6
        0x0000123e:    4308        .C      ORRS     r0,r0,r1
        0x00001240:    6090        .`      STR      r0,[r2,#8]
        0x00001242:    2005        .       MOVS     r0,#5
        0x00001244:    0700        ..      LSLS     r0,r0,#28
        0x00001246:    68c2        .h      LDR      r2,[r0,#0xc]
        0x00001248:    430a        .C      ORRS     r2,r2,r1
        0x0000124a:    60c2        .`      STR      r2,[r0,#0xc]
        0x0000124c:    68c2        .h      LDR      r2,[r0,#0xc]
        0x0000124e:    438a        .C      BICS     r2,r2,r1
        0x00001250:    60c2        .`      STR      r2,[r0,#0xc]
        0x00001252:    6bc1        .k      LDR      r1,[r0,#0x3c]
        0x00001254:    22ff        ."      MOVS     r2,#0xff
        0x00001256:    3201        .2      ADDS     r2,#1
        0x00001258:    4311        .C      ORRS     r1,r1,r2
        0x0000125a:    63c1        .c      STR      r1,[r0,#0x3c]
        0x0000125c:    6bc1        .k      LDR      r1,[r0,#0x3c]
        0x0000125e:    0052        R.      LSLS     r2,r2,#1
        0x00001260:    4311        .C      ORRS     r1,r1,r2
        0x00001262:    63c1        .c      STR      r1,[r0,#0x3c]
        0x00001264:    6bc2        .k      LDR      r2,[r0,#0x3c]
        0x00001266:    2101        .!      MOVS     r1,#1
        0x00001268:    02c9        ..      LSLS     r1,r1,#11
        0x0000126a:    430a        .C      ORRS     r2,r2,r1
        0x0000126c:    63c2        .c      STR      r2,[r0,#0x3c]
        0x0000126e:    4831        1H      LDR      r0,[pc,#196] ; [0x1334] = 0x2000001c
        0x00001270:    68c0        .h      LDR      r0,[r0,#0xc]
        0x00001272:    6802        .h      LDR      r2,[r0,#0]
        0x00001274:    430a        .C      ORRS     r2,r2,r1
        0x00001276:    6002        .`      STR      r2,[r0,#0]
        0x00001278:    6801        .h      LDR      r1,[r0,#0]
        0x0000127a:    22f8        ."      MOVS     r2,#0xf8
        0x0000127c:    4391        .C      BICS     r1,r1,r2
        0x0000127e:    3148        H1      ADDS     r1,r1,#0x48
        0x00001280:    6001        .`      STR      r1,[r0,#0]
        0x00001282:    6801        .h      LDR      r1,[r0,#0]
        0x00001284:    2204        ."      MOVS     r2,#4
        0x00001286:    4311        .C      ORRS     r1,r1,r2
        0x00001288:    6001        .`      STR      r1,[r0,#0]
        0x0000128a:    6841        Ah      LDR      r1,[r0,#4]
        0x0000128c:    0c09        ..      LSRS     r1,r1,#16
        0x0000128e:    0409        ..      LSLS     r1,r1,#16
        0x00001290:    1cc9        ..      ADDS     r1,r1,#3
        0x00001292:    6041        A`      STR      r1,[r0,#4]
        0x00001294:    6881        .h      LDR      r1,[r0,#8]
        0x00001296:    0889        ..      LSRS     r1,r1,#2
        0x00001298:    0089        ..      LSLS     r1,r1,#2
        0x0000129a:    1c49        I.      ADDS     r1,r1,#1
        0x0000129c:    6081        .`      STR      r1,[r0,#8]
        0x0000129e:    21eb        .!      MOVS     r1,#0xeb
        0x000012a0:    6201        .b      STR      r1,[r0,#0x20]
        0x000012a2:    6801        .h      LDR      r1,[r0,#0]
        0x000012a4:    2201        ."      MOVS     r2,#1
        0x000012a6:    4311        .C      ORRS     r1,r1,r2
        0x000012a8:    6001        .`      STR      r1,[r0,#0]
        0x000012aa:    6801        .h      LDR      r1,[r0,#0]
        0x000012ac:    07c9        ..      LSLS     r1,r1,#31
        0x000012ae:    d1fc        ..      BNE      0x12aa ; Initial_panel + 114
        0x000012b0:    6881        .h      LDR      r1,[r0,#8]
        0x000012b2:    0889        ..      LSRS     r1,r1,#2
        0x000012b4:    0089        ..      LSLS     r1,r1,#2
        0x000012b6:    6081        .`      STR      r1,[r0,#8]
        0x000012b8:    6881        .h      LDR      r1,[r0,#8]
        0x000012ba:    0889        ..      LSRS     r1,r1,#2
        0x000012bc:    0089        ..      LSLS     r1,r1,#2
        0x000012be:    1c49        I.      ADDS     r1,r1,#1
        0x000012c0:    6081        .`      STR      r1,[r0,#8]
        0x000012c2:    2181        .!      MOVS     r1,#0x81
        0x000012c4:    6201        .b      STR      r1,[r0,#0x20]
        0x000012c6:    6801        .h      LDR      r1,[r0,#0]
        0x000012c8:    4311        .C      ORRS     r1,r1,r2
        0x000012ca:    6001        .`      STR      r1,[r0,#0]
        0x000012cc:    6801        .h      LDR      r1,[r0,#0]
        0x000012ce:    07c9        ..      LSLS     r1,r1,#31
        0x000012d0:    d1fc        ..      BNE      0x12cc ; Initial_panel + 148
        0x000012d2:    21a0        .!      MOVS     r1,#0xa0
        0x000012d4:    6201        .b      STR      r1,[r0,#0x20]
        0x000012d6:    6801        .h      LDR      r1,[r0,#0]
        0x000012d8:    4311        .C      ORRS     r1,r1,r2
        0x000012da:    6001        .`      STR      r1,[r0,#0]
        0x000012dc:    6801        .h      LDR      r1,[r0,#0]
        0x000012de:    07c9        ..      LSLS     r1,r1,#31
        0x000012e0:    d1fc        ..      BNE      0x12dc ; Initial_panel + 164
        0x000012e2:    6881        .h      LDR      r1,[r0,#8]
        0x000012e4:    0889        ..      LSRS     r1,r1,#2
        0x000012e6:    0089        ..      LSLS     r1,r1,#2
        0x000012e8:    6081        .`      STR      r1,[r0,#8]
        0x000012ea:    6881        .h      LDR      r1,[r0,#8]
        0x000012ec:    0889        ..      LSRS     r1,r1,#2
        0x000012ee:    0089        ..      LSLS     r1,r1,#2
        0x000012f0:    1c49        I.      ADDS     r1,r1,#1
        0x000012f2:    6081        .`      STR      r1,[r0,#8]
        0x000012f4:    21c0        .!      MOVS     r1,#0xc0
        0x000012f6:    6201        .b      STR      r1,[r0,#0x20]
        0x000012f8:    6801        .h      LDR      r1,[r0,#0]
        0x000012fa:    4311        .C      ORRS     r1,r1,r2
        0x000012fc:    6001        .`      STR      r1,[r0,#0]
        0x000012fe:    6801        .h      LDR      r1,[r0,#0]
        0x00001300:    07c9        ..      LSLS     r1,r1,#31
        0x00001302:    d1fc        ..      BNE      0x12fe ; Initial_panel + 198
        0x00001304:    6881        .h      LDR      r1,[r0,#8]
        0x00001306:    0889        ..      LSRS     r1,r1,#2
        0x00001308:    0089        ..      LSLS     r1,r1,#2
        0x0000130a:    6081        .`      STR      r1,[r0,#8]
        0x0000130c:    6881        .h      LDR      r1,[r0,#8]
        0x0000130e:    0889        ..      LSRS     r1,r1,#2
        0x00001310:    0089        ..      LSLS     r1,r1,#2
        0x00001312:    1c49        I.      ADDS     r1,r1,#1
        0x00001314:    6081        .`      STR      r1,[r0,#8]
        0x00001316:    21af        .!      MOVS     r1,#0xaf
        0x00001318:    6201        .b      STR      r1,[r0,#0x20]
        0x0000131a:    6801        .h      LDR      r1,[r0,#0]
        0x0000131c:    4311        .C      ORRS     r1,r1,r2
        0x0000131e:    6001        .`      STR      r1,[r0,#0]
        0x00001320:    6801        .h      LDR      r1,[r0,#0]
        0x00001322:    07c9        ..      LSLS     r1,r1,#31
        0x00001324:    d1fc        ..      BNE      0x1320 ; Initial_panel + 232
        0x00001326:    6881        .h      LDR      r1,[r0,#8]
        0x00001328:    0889        ..      LSRS     r1,r1,#2
        0x0000132a:    0089        ..      LSLS     r1,r1,#2
        0x0000132c:    6081        .`      STR      r1,[r0,#8]
        0x0000132e:    4770        pG      BX       lr
    $d
        0x00001330:    50000200    ...P    DCD    1342177792
        0x00001334:    2000001c    ...     DCD    536870940
    $t
    i.OpenKeyPad
    OpenKeyPad
        0x00001338:    b510        ..      PUSH     {r4,lr}
        0x0000133a:    2400        .$      MOVS     r4,#0
        0x0000133c:    2203        ."      MOVS     r2,#3
        0x0000133e:    4621        !F      MOV      r1,r4
        0x00001340:    2000        .       MOVS     r0,#0
        0x00001342:    f7fff9fb    ....    BL       DrvGPIO_Open ; 0x73c
        0x00001346:    1c64        d.      ADDS     r4,r4,#1
        0x00001348:    b2e4        ..      UXTB     r4,r4
        0x0000134a:    2c06        .,      CMP      r4,#6
        0x0000134c:    d3f6        ..      BCC      0x133c ; OpenKeyPad + 4
        0x0000134e:    bd10        ..      POP      {r4,pc}
    i.PWM_Servo
    PWM_Servo
        0x00001350:    b5f0        ..      PUSH     {r4-r7,lr}
        0x00001352:    4603        .F      MOV      r3,r0
        0x00001354:    484a        JH      LDR      r0,[pc,#296] ; [0x1480] = 0x40140000
        0x00001356:    25ff        .%      MOVS     r5,#0xff
        0x00001358:    2677        w&      MOVS     r6,#0x77
        0x0000135a:    4a47        GJ      LDR      r2,[pc,#284] ; [0x1478] = 0x7cf
        0x0000135c:    1e49        I.      SUBS     r1,r1,#1
        0x0000135e:    4c47        GL      LDR      r4,[pc,#284] ; [0x147c] = 0x40040040
        0x00001360:    022d        -.      LSLS     r5,r5,#8
        0x00001362:    0236        6.      LSLS     r6,r6,#8
        0x00001364:    4f46        FO      LDR      r7,[pc,#280] ; [0x1480] = 0x40140000
        0x00001366:    3040        @0      ADDS     r0,r0,#0x40
        0x00001368:    f000fa42    ..B.    BL       __ARM_common_switch8 ; 0x17f0
    $d
        0x0000136c:    25150508    ...%    DCD    622134536
        0x00001370:    65574937    7IWe    DCD    1700219191
        0x00001374:    3675        u6      DCW    13941
    $t
        0x00001376:    4841        AH      LDR      r0,[pc,#260] ; [0x147c] = 0x40040040
        0x00001378:    3840        @8      SUBS     r0,r0,#0x40
        0x0000137a:    6843        Ch      LDR      r3,[r0,#4]
        0x0000137c:    08db        ..      LSRS     r3,r3,#3
        0x0000137e:    00db        ..      LSLS     r3,r3,#3
        0x00001380:    6043        C`      STR      r3,[r0,#4]
        0x00001382:    6803        .h      LDR      r3,[r0,#0]
        0x00001384:    0a1b        ..      LSRS     r3,r3,#8
        0x00001386:    021b        ..      LSLS     r3,r3,#8
        0x00001388:    3377        w3      ADDS     r3,r3,#0x77
        0x0000138a:    6003        .`      STR      r3,[r0,#0]
        0x0000138c:    60c2        .`      STR      r2,[r0,#0xc]
        0x0000138e:    6101        .a      STR      r1,[r0,#0x10]
        0x00001390:    6be0        .k      LDR      r0,[r4,#0x3c]
        0x00001392:    2101        .!      MOVS     r1,#1
        0x00001394:    e01e        ..      B        0x13d4 ; PWM_Servo + 132
        0x00001396:    4839        9H      LDR      r0,[pc,#228] ; [0x147c] = 0x40040040
        0x00001398:    3840        @8      SUBS     r0,r0,#0x40
        0x0000139a:    6843        Ch      LDR      r3,[r0,#4]
        0x0000139c:    2570        p%      MOVS     r5,#0x70
        0x0000139e:    43ab        .C      BICS     r3,r3,r5
        0x000013a0:    6043        C`      STR      r3,[r0,#4]
        0x000013a2:    6803        .h      LDR      r3,[r0,#0]
        0x000013a4:    0a1b        ..      LSRS     r3,r3,#8
        0x000013a6:    021b        ..      LSLS     r3,r3,#8
        0x000013a8:    3377        w3      ADDS     r3,r3,#0x77
        0x000013aa:    6003        .`      STR      r3,[r0,#0]
        0x000013ac:    6182        .a      STR      r2,[r0,#0x18]
        0x000013ae:    61c1        .a      STR      r1,[r0,#0x1c]
        0x000013b0:    6be0        .k      LDR      r0,[r4,#0x3c]
        0x000013b2:    2102        .!      MOVS     r1,#2
        0x000013b4:    e00e        ..      B        0x13d4 ; PWM_Servo + 132
        0x000013b6:    4831        1H      LDR      r0,[pc,#196] ; [0x147c] = 0x40040040
        0x000013b8:    3840        @8      SUBS     r0,r0,#0x40
        0x000013ba:    6843        Ch      LDR      r3,[r0,#4]
        0x000013bc:    2707        .'      MOVS     r7,#7
        0x000013be:    023f        ?.      LSLS     r7,r7,#8
        0x000013c0:    43bb        .C      BICS     r3,r3,r7
        0x000013c2:    6043        C`      STR      r3,[r0,#4]
        0x000013c4:    6803        .h      LDR      r3,[r0,#0]
        0x000013c6:    43ab        .C      BICS     r3,r3,r5
        0x000013c8:    199b        ..      ADDS     r3,r3,r6
        0x000013ca:    6003        .`      STR      r3,[r0,#0]
        0x000013cc:    6242        Bb      STR      r2,[r0,#0x24]
        0x000013ce:    6281        .b      STR      r1,[r0,#0x28]
        0x000013d0:    6be0        .k      LDR      r0,[r4,#0x3c]
        0x000013d2:    2104        .!      MOVS     r1,#4
        0x000013d4:    4308        .C      ORRS     r0,r0,r1
        0x000013d6:    63e0        .c      STR      r0,[r4,#0x3c]
        0x000013d8:    bdf0        ..      POP      {r4-r7,pc}
        0x000013da:    4828        (H      LDR      r0,[pc,#160] ; [0x147c] = 0x40040040
        0x000013dc:    3840        @8      SUBS     r0,r0,#0x40
        0x000013de:    6843        Ch      LDR      r3,[r0,#4]
        0x000013e0:    2707        .'      MOVS     r7,#7
        0x000013e2:    033f        ?.      LSLS     r7,r7,#12
        0x000013e4:    43bb        .C      BICS     r3,r3,r7
        0x000013e6:    6043        C`      STR      r3,[r0,#4]
        0x000013e8:    6803        .h      LDR      r3,[r0,#0]
        0x000013ea:    43ab        .C      BICS     r3,r3,r5
        0x000013ec:    199b        ..      ADDS     r3,r3,r6
        0x000013ee:    6003        .`      STR      r3,[r0,#0]
        0x000013f0:    6302        .c      STR      r2,[r0,#0x30]
        0x000013f2:    6341        Ac      STR      r1,[r0,#0x34]
        0x000013f4:    6be1        .k      LDR      r1,[r4,#0x3c]
        0x000013f6:    2008        .       MOVS     r0,#8
        0x000013f8:    4301        .C      ORRS     r1,r1,r0
        0x000013fa:    63e1        .c      STR      r1,[r4,#0x3c]
        0x000013fc:    bdf0        ..      POP      {r4-r7,pc}
        0x000013fe:    687b        {h      LDR      r3,[r7,#4]
        0x00001400:    08db        ..      LSRS     r3,r3,#3
        0x00001402:    00db        ..      LSLS     r3,r3,#3
        0x00001404:    607b        {`      STR      r3,[r7,#4]
        0x00001406:    683b        ;h      LDR      r3,[r7,#0]
        0x00001408:    0a1b        ..      LSRS     r3,r3,#8
        0x0000140a:    021b        ..      LSLS     r3,r3,#8
        0x0000140c:    3377        w3      ADDS     r3,r3,#0x77
        0x0000140e:    603b        ;`      STR      r3,[r7,#0]
        0x00001410:    60fa        .`      STR      r2,[r7,#0xc]
        0x00001412:    6139        9a      STR      r1,[r7,#0x10]
        0x00001414:    6bc1        .k      LDR      r1,[r0,#0x3c]
        0x00001416:    2201        ."      MOVS     r2,#1
        0x00001418:    e02a        *.      B        0x1470 ; PWM_Servo + 288
        0x0000141a:    687b        {h      LDR      r3,[r7,#4]
        0x0000141c:    2470        p$      MOVS     r4,#0x70
        0x0000141e:    43a3        .C      BICS     r3,r3,r4
        0x00001420:    607b        {`      STR      r3,[r7,#4]
        0x00001422:    683b        ;h      LDR      r3,[r7,#0]
        0x00001424:    0a1b        ..      LSRS     r3,r3,#8
        0x00001426:    021b        ..      LSLS     r3,r3,#8
        0x00001428:    3377        w3      ADDS     r3,r3,#0x77
        0x0000142a:    603b        ;`      STR      r3,[r7,#0]
        0x0000142c:    61ba        .a      STR      r2,[r7,#0x18]
        0x0000142e:    61f9        .a      STR      r1,[r7,#0x1c]
        0x00001430:    6bc1        .k      LDR      r1,[r0,#0x3c]
        0x00001432:    2202        ."      MOVS     r2,#2
        0x00001434:    e01c        ..      B        0x1470 ; PWM_Servo + 288
        0x00001436:    687b        {h      LDR      r3,[r7,#4]
        0x00001438:    2407        .$      MOVS     r4,#7
        0x0000143a:    0224        $.      LSLS     r4,r4,#8
        0x0000143c:    43a3        .C      BICS     r3,r3,r4
        0x0000143e:    607b        {`      STR      r3,[r7,#4]
        0x00001440:    683b        ;h      LDR      r3,[r7,#0]
        0x00001442:    43ab        .C      BICS     r3,r3,r5
        0x00001444:    199b        ..      ADDS     r3,r3,r6
        0x00001446:    603b        ;`      STR      r3,[r7,#0]
        0x00001448:    627a        zb      STR      r2,[r7,#0x24]
        0x0000144a:    62b9        .b      STR      r1,[r7,#0x28]
        0x0000144c:    6bc2        .k      LDR      r2,[r0,#0x3c]
        0x0000144e:    2104        .!      MOVS     r1,#4
        0x00001450:    430a        .C      ORRS     r2,r2,r1
        0x00001452:    63c2        .c      STR      r2,[r0,#0x3c]
        0x00001454:    bdf0        ..      POP      {r4-r7,pc}
        0x00001456:    687b        {h      LDR      r3,[r7,#4]
        0x00001458:    2407        .$      MOVS     r4,#7
        0x0000145a:    0324        $.      LSLS     r4,r4,#12
        0x0000145c:    43a3        .C      BICS     r3,r3,r4
        0x0000145e:    607b        {`      STR      r3,[r7,#4]
        0x00001460:    683b        ;h      LDR      r3,[r7,#0]
        0x00001462:    43ab        .C      BICS     r3,r3,r5
        0x00001464:    199b        ..      ADDS     r3,r3,r6
        0x00001466:    603b        ;`      STR      r3,[r7,#0]
        0x00001468:    633a        :c      STR      r2,[r7,#0x30]
        0x0000146a:    6379        yc      STR      r1,[r7,#0x34]
        0x0000146c:    6bc1        .k      LDR      r1,[r0,#0x3c]
        0x0000146e:    2208        ."      MOVS     r2,#8
        0x00001470:    4311        .C      ORRS     r1,r1,r2
        0x00001472:    63c1        .c      STR      r1,[r0,#0x3c]
        0x00001474:    bdf0        ..      POP      {r4-r7,pc}
    $d
        0x00001476:    0000        ..      DCW    0
        0x00001478:    000007cf    ....    DCD    1999
        0x0000147c:    40040040    @..@    DCD    1074004032
        0x00001480:    40140000    ...@    DCD    1075052544
    $t
    i.PWRWU_IRQHandler
    PWRWU_IRQHandler
        0x00001484:    4805        .H      LDR      r0,[pc,#20] ; [0x149c] = 0x50000200
        0x00001486:    6801        .h      LDR      r1,[r0,#0]
        0x00001488:    2240        @"      MOVS     r2,#0x40
        0x0000148a:    4311        .C      ORRS     r1,r1,r2
        0x0000148c:    6001        .`      STR      r1,[r0,#0]
        0x0000148e:    4804        .H      LDR      r0,[pc,#16] ; [0x14a0] = 0x2000066c
        0x00001490:    6840        @h      LDR      r0,[r0,#4]
        0x00001492:    2800        .(      CMP      r0,#0
        0x00001494:    d000        ..      BEQ      0x1498 ; PWRWU_IRQHandler + 20
        0x00001496:    4700        .G      BX       r0
        0x00001498:    4770        pG      BX       lr
    $d
        0x0000149a:    0000        ..      DCW    0
        0x0000149c:    50000200    ...P    DCD    1342177792
        0x000014a0:    2000066c    l..     DCD    536872556
    $t
    i.SR04_Trigger
    SR04_Trigger
        0x000014a4:    b510        ..      PUSH     {r4,lr}
        0x000014a6:    4c09        .L      LDR      r4,[pc,#36] ; [0x14cc] = 0x50004240
        0x000014a8:    2001        .       MOVS     r0,#1
        0x000014aa:    6120         a      STR      r0,[r4,#0x10]
        0x000014ac:    200a        .       MOVS     r0,#0xa
        0x000014ae:    f7fff99f    ....    BL       DrvSYS_Delay ; 0x7f0
        0x000014b2:    2000        .       MOVS     r0,#0
        0x000014b4:    6120         a      STR      r0,[r4,#0x10]
        0x000014b6:    2201        ."      MOVS     r2,#1
        0x000014b8:    210b        .!      MOVS     r1,#0xb
        0x000014ba:    4610        .F      MOV      r0,r2
        0x000014bc:    f7fff93e    ..>.    BL       DrvGPIO_Open ; 0x73c
        0x000014c0:    4803        .H      LDR      r0,[pc,#12] ; [0x14d0] = 0x40110000
        0x000014c2:    6941        Ai      LDR      r1,[r0,#0x14]
        0x000014c4:    2210        ."      MOVS     r2,#0x10
        0x000014c6:    4311        .C      ORRS     r1,r1,r2
        0x000014c8:    6141        Aa      STR      r1,[r0,#0x14]
        0x000014ca:    bd10        ..      POP      {r4,pc}
    $d
        0x000014cc:    50004240    @B.P    DCD    1342194240
        0x000014d0:    40110000    ...@    DCD    1074855936
    $t
    i.Scankey
    Scankey
        0x000014d4:    b5f8        ..      PUSH     {r3-r7,lr}
        0x000014d6:    481b        .H      LDR      r0,[pc,#108] ; [0x1544] = 0x1f34
        0x000014d8:    2400        .$      MOVS     r4,#0
        0x000014da:    6800        .h      LDR      r0,[r0,#0]
        0x000014dc:    466f        oF      MOV      r7,sp
        0x000014de:    9000        ..      STR      r0,[sp,#0]
        0x000014e0:    5d3d        =]      LDRB     r5,[r7,r4]
        0x000014e2:    2600        .&      MOVS     r6,#0
        0x000014e4:    07e8        ..      LSLS     r0,r5,#31
        0x000014e6:    4631        1F      MOV      r1,r6
        0x000014e8:    d003        ..      BEQ      0x14f2 ; Scankey + 30
        0x000014ea:    2000        .       MOVS     r0,#0
        0x000014ec:    f7fff954    ..T.    BL       DrvGPIO_SetBit ; 0x798
        0x000014f0:    e002        ..      B        0x14f8 ; Scankey + 36
        0x000014f2:    2000        .       MOVS     r0,#0
        0x000014f4:    f7feff18    ....    BL       DrvGPIO_ClrBit ; 0x328
        0x000014f8:    1c76        v.      ADDS     r6,r6,#1
        0x000014fa:    086d        m.      LSRS     r5,r5,#1
        0x000014fc:    b2f6        ..      UXTB     r6,r6
        0x000014fe:    2e06        ..      CMP      r6,#6
        0x00001500:    d3f0        ..      BCC      0x14e4 ; Scankey + 16
        0x00001502:    f000fa86    ....    BL       delay ; 0x1a12
        0x00001506:    2103        .!      MOVS     r1,#3
        0x00001508:    2000        .       MOVS     r0,#0
        0x0000150a:    f7feff33    ..3.    BL       DrvGPIO_GetBit ; 0x374
        0x0000150e:    2800        .(      CMP      r0,#0
        0x00001510:    d101        ..      BNE      0x1516 ; Scankey + 66
        0x00001512:    1c64        d.      ADDS     r4,r4,#1
        0x00001514:    e00e        ..      B        0x1534 ; Scankey + 96
        0x00001516:    2104        .!      MOVS     r1,#4
        0x00001518:    2000        .       MOVS     r0,#0
        0x0000151a:    f7feff2b    ..+.    BL       DrvGPIO_GetBit ; 0x374
        0x0000151e:    2800        .(      CMP      r0,#0
        0x00001520:    d101        ..      BNE      0x1526 ; Scankey + 82
        0x00001522:    1d24        $.      ADDS     r4,r4,#4
        0x00001524:    e006        ..      B        0x1534 ; Scankey + 96
        0x00001526:    2105        .!      MOVS     r1,#5
        0x00001528:    2000        .       MOVS     r0,#0
        0x0000152a:    f7feff23    ..#.    BL       DrvGPIO_GetBit ; 0x374
        0x0000152e:    2800        .(      CMP      r0,#0
        0x00001530:    d102        ..      BNE      0x1538 ; Scankey + 100
        0x00001532:    1de4        ..      ADDS     r4,r4,#7
        0x00001534:    b2e0        ..      UXTB     r0,r4
        0x00001536:    bdf8        ..      POP      {r3-r7,pc}
        0x00001538:    1c64        d.      ADDS     r4,r4,#1
        0x0000153a:    b2e4        ..      UXTB     r4,r4
        0x0000153c:    2c03        .,      CMP      r4,#3
        0x0000153e:    d3cf        ..      BCC      0x14e0 ; Scankey + 12
        0x00001540:    2000        .       MOVS     r0,#0
        0x00001542:    bdf8        ..      POP      {r3-r7,pc}
    $d
        0x00001544:    00001f34    4...    DCD    7988
    $t
    i.SetPACA
    SetPACA
        0x00001548:    4a1c        .J      LDR      r2,[pc,#112] ; [0x15bc] = 0x2000001c
        0x0000154a:    68d2        .h      LDR      r2,[r2,#0xc]
        0x0000154c:    6893        .h      LDR      r3,[r2,#8]
        0x0000154e:    089b        ..      LSRS     r3,r3,#2
        0x00001550:    009b        ..      LSLS     r3,r3,#2
        0x00001552:    1c5b        [.      ADDS     r3,r3,#1
        0x00001554:    6093        .`      STR      r3,[r2,#8]
        0x00001556:    23b0        .#      MOVS     r3,#0xb0
        0x00001558:    4318        .C      ORRS     r0,r0,r3
        0x0000155a:    6210        .b      STR      r0,[r2,#0x20]
        0x0000155c:    6810        .h      LDR      r0,[r2,#0]
        0x0000155e:    2301        .#      MOVS     r3,#1
        0x00001560:    4318        .C      ORRS     r0,r0,r3
        0x00001562:    6010        .`      STR      r0,[r2,#0]
        0x00001564:    6810        .h      LDR      r0,[r2,#0]
        0x00001566:    07c0        ..      LSLS     r0,r0,#31
        0x00001568:    d1fc        ..      BNE      0x1564 ; SetPACA + 28
        0x0000156a:    6890        .h      LDR      r0,[r2,#8]
        0x0000156c:    0880        ..      LSRS     r0,r0,#2
        0x0000156e:    0080        ..      LSLS     r0,r0,#2
        0x00001570:    6090        .`      STR      r0,[r2,#8]
        0x00001572:    6890        .h      LDR      r0,[r2,#8]
        0x00001574:    0880        ..      LSRS     r0,r0,#2
        0x00001576:    0080        ..      LSLS     r0,r0,#2
        0x00001578:    1c40        @.      ADDS     r0,r0,#1
        0x0000157a:    6090        .`      STR      r0,[r2,#8]
        0x0000157c:    0908        ..      LSRS     r0,r1,#4
        0x0000157e:    3010        .0      ADDS     r0,r0,#0x10
        0x00001580:    6210        .b      STR      r0,[r2,#0x20]
        0x00001582:    6810        .h      LDR      r0,[r2,#0]
        0x00001584:    4318        .C      ORRS     r0,r0,r3
        0x00001586:    6010        .`      STR      r0,[r2,#0]
        0x00001588:    6810        .h      LDR      r0,[r2,#0]
        0x0000158a:    07c0        ..      LSLS     r0,r0,#31
        0x0000158c:    d1fc        ..      BNE      0x1588 ; SetPACA + 64
        0x0000158e:    6890        .h      LDR      r0,[r2,#8]
        0x00001590:    0880        ..      LSRS     r0,r0,#2
        0x00001592:    0080        ..      LSLS     r0,r0,#2
        0x00001594:    6090        .`      STR      r0,[r2,#8]
        0x00001596:    6890        .h      LDR      r0,[r2,#8]
        0x00001598:    0880        ..      LSRS     r0,r0,#2
        0x0000159a:    0080        ..      LSLS     r0,r0,#2
        0x0000159c:    1c40        @.      ADDS     r0,r0,#1
        0x0000159e:    6090        .`      STR      r0,[r2,#8]
        0x000015a0:    0708        ..      LSLS     r0,r1,#28
        0x000015a2:    0f00        ..      LSRS     r0,r0,#28
        0x000015a4:    6210        .b      STR      r0,[r2,#0x20]
        0x000015a6:    6810        .h      LDR      r0,[r2,#0]
        0x000015a8:    4318        .C      ORRS     r0,r0,r3
        0x000015aa:    6010        .`      STR      r0,[r2,#0]
        0x000015ac:    6810        .h      LDR      r0,[r2,#0]
        0x000015ae:    07c0        ..      LSLS     r0,r0,#31
        0x000015b0:    d1fc        ..      BNE      0x15ac ; SetPACA + 100
        0x000015b2:    6890        .h      LDR      r0,[r2,#8]
        0x000015b4:    0880        ..      LSRS     r0,r0,#2
        0x000015b6:    0080        ..      LSLS     r0,r0,#2
        0x000015b8:    6090        .`      STR      r0,[r2,#8]
        0x000015ba:    4770        pG      BX       lr
    $d
        0x000015bc:    2000001c    ...     DCD    536870940
    $t
    i.Show_Word
    Show_Word
        0x000015c0:    b5f0        ..      PUSH     {r4-r7,lr}
        0x000015c2:    0115        ..      LSLS     r5,r2,#4
        0x000015c4:    3dff        .=      SUBS     r5,r5,#0xff
        0x000015c6:    3dff        .=      SUBS     r5,r5,#0xff
        0x000015c8:    3d02        .=      SUBS     r5,#2
        0x000015ca:    00c9        ..      LSLS     r1,r1,#3
        0x000015cc:    2281        ."      MOVS     r2,#0x81
        0x000015ce:    2400        .$      MOVS     r4,#0
        0x000015d0:    1a56        V.      SUBS     r6,r2,r1
        0x000015d2:    0047        G.      LSLS     r7,r0,#1
        0x000015d4:    1b30        0.      SUBS     r0,r6,r4
        0x000015d6:    b2c1        ..      UXTB     r1,r0
        0x000015d8:    b2f8        ..      UXTB     r0,r7
        0x000015da:    f7ffffb5    ....    BL       SetPACA ; 0x1548
        0x000015de:    4b0c        .K      LDR      r3,[pc,#48] ; [0x1610] = 0x2000002c
        0x000015e0:    1928        (.      ADDS     r0,r5,r4
        0x000015e2:    5c18        .\      LDRB     r0,[r3,r0]
        0x000015e4:    f000f8d8    ....    BL       WriteData ; 0x1798
        0x000015e8:    1c64        d.      ADDS     r4,r4,#1
        0x000015ea:    2c08        .,      CMP      r4,#8
        0x000015ec:    dbf2        ..      BLT      0x15d4 ; Show_Word + 20
        0x000015ee:    2400        .$      MOVS     r4,#0
        0x000015f0:    1c7f        ..      ADDS     r7,r7,#1
        0x000015f2:    1b30        0.      SUBS     r0,r6,r4
        0x000015f4:    b2c1        ..      UXTB     r1,r0
        0x000015f6:    b2f8        ..      UXTB     r0,r7
        0x000015f8:    f7ffffa6    ....    BL       SetPACA ; 0x1548
        0x000015fc:    4904        .I      LDR      r1,[pc,#16] ; [0x1610] = 0x2000002c
        0x000015fe:    1928        (.      ADDS     r0,r5,r4
        0x00001600:    1840        @.      ADDS     r0,r0,r1
        0x00001602:    7a00        .z      LDRB     r0,[r0,#8]
        0x00001604:    f000f8c8    ....    BL       WriteData ; 0x1798
        0x00001608:    1c64        d.      ADDS     r4,r4,#1
        0x0000160a:    2c08        .,      CMP      r4,#8
        0x0000160c:    dbf1        ..      BLT      0x15f2 ; Show_Word + 50
        0x0000160e:    bdf0        ..      POP      {r4-r7,pc}
    $d
        0x00001610:    2000002c    ,..     DCD    536870956
    $t
    i.SystemCoreClockUpdate
    SystemCoreClockUpdate
        0x00001614:    b570        p.      PUSH     {r4-r6,lr}
        0x00001616:    4d1b        .M      LDR      r5,[pc,#108] ; [0x1684] = 0x50000200
        0x00001618:    6928        (i      LDR      r0,[r5,#0x10]
        0x0000161a:    0740        @.      LSLS     r0,r0,#29
        0x0000161c:    0f40        @.      LSRS     r0,r0,#29
        0x0000161e:    2805        .(      CMP      r0,#5
        0x00001620:    d901        ..      BLS      0x1626 ; SystemCoreClockUpdate + 18
        0x00001622:    2004        .       MOVS     r0,#4
        0x00001624:    e001        ..      B        0x162a ; SystemCoreClockUpdate + 22
        0x00001626:    2802        .(      CMP      r0,#2
        0x00001628:    d003        ..      BEQ      0x1632 ; SystemCoreClockUpdate + 30
        0x0000162a:    4917        .I      LDR      r1,[pc,#92] ; [0x1688] = 0x20000008
        0x0000162c:    0080        ..      LSLS     r0,r0,#2
        0x0000162e:    5808        .X      LDR      r0,[r1,r0]
        0x00001630:    e017        ..      B        0x1662 ; SystemCoreClockUpdate + 78
        0x00001632:    6a28        (j      LDR      r0,[r5,#0x20]
        0x00001634:    0400        ..      LSLS     r0,r0,#16
        0x00001636:    0f84        ..      LSRS     r4,r0,#30
        0x00001638:    2c01        .,      CMP      r4,#1
        0x0000163a:    d900        ..      BLS      0x163e ; SystemCoreClockUpdate + 42
        0x0000163c:    1e64        d.      SUBS     r4,r4,#1
        0x0000163e:    6a28        (j      LDR      r0,[r5,#0x20]
        0x00001640:    0300        ..      LSLS     r0,r0,#12
        0x00001642:    d501        ..      BPL      0x1648 ; SystemCoreClockUpdate + 52
        0x00001644:    4811        .H      LDR      r0,[pc,#68] ; [0x168c] = 0x1518000
        0x00001646:    e000        ..      B        0x164a ; SystemCoreClockUpdate + 54
        0x00001648:    4811        .H      LDR      r0,[pc,#68] ; [0x1690] = 0xb71b00
        0x0000164a:    6a29        )j      LDR      r1,[r5,#0x20]
        0x0000164c:    05c9        ..      LSLS     r1,r1,#23
        0x0000164e:    0dc9        ..      LSRS     r1,r1,#23
        0x00001650:    1c89        ..      ADDS     r1,r1,#2
        0x00001652:    4348        HC      MULS     r0,r1,r0
        0x00001654:    6a29        )j      LDR      r1,[r5,#0x20]
        0x00001656:    0489        ..      LSLS     r1,r1,#18
        0x00001658:    0ec9        ..      LSRS     r1,r1,#27
        0x0000165a:    1c89        ..      ADDS     r1,r1,#2
        0x0000165c:    f7fefd60    ..`.    BL       __aeabi_uidiv ; 0x120
        0x00001660:    40e0        .@      LSRS     r0,r0,r4
        0x00001662:    69a9        .i      LDR      r1,[r5,#0x18]
        0x00001664:    0709        ..      LSLS     r1,r1,#28
        0x00001666:    0f09        ..      LSRS     r1,r1,#28
        0x00001668:    1c49        I.      ADDS     r1,r1,#1
        0x0000166a:    f7fefd59    ..Y.    BL       __aeabi_uidiv ; 0x120
        0x0000166e:    4c06        .L      LDR      r4,[pc,#24] ; [0x1688] = 0x20000008
        0x00001670:    4908        .I      LDR      r1,[pc,#32] ; [0x1694] = 0xf4240
        0x00001672:    3c08        .<      SUBS     r4,r4,#8
        0x00001674:    104a        J.      ASRS     r2,r1,#1
        0x00001676:    6020         `      STR      r0,[r4,#0]
        0x00001678:    1880        ..      ADDS     r0,r0,r2
        0x0000167a:    f7fefd51    ..Q.    BL       __aeabi_uidiv ; 0x120
        0x0000167e:    6060        ``      STR      r0,[r4,#4]
        0x00001680:    bd70        p.      POP      {r4-r6,pc}
    $d
        0x00001682:    0000        ..      DCW    0
        0x00001684:    50000200    ...P    DCD    1342177792
        0x00001688:    20000008    ...     DCD    536870920
        0x0000168c:    01518000    ..Q.    DCD    22118400
        0x00001690:    00b71b00    ....    DCD    12000000
        0x00001694:    000f4240    @B..    DCD    1000000
    $t
    i.SystemInit
    SystemInit
        0x00001698:    4770        pG      BX       lr
        0x0000169a:    0000        ..      MOVS     r0,r0
    i.TMR0_IRQHandler
    TMR0_IRQHandler
        0x0000169c:    4904        .I      LDR      r1,[pc,#16] ; [0x16b0] = 0x2000061c
        0x0000169e:    68c8        .h      LDR      r0,[r1,#0xc]
        0x000016a0:    1c40        @.      ADDS     r0,r0,#1
        0x000016a2:    60c8        .`      STR      r0,[r1,#0xc]
        0x000016a4:    4903        .I      LDR      r1,[pc,#12] ; [0x16b4] = 0x40010000
        0x000016a6:    6888        .h      LDR      r0,[r1,#8]
        0x000016a8:    2201        ."      MOVS     r2,#1
        0x000016aa:    4310        .C      ORRS     r0,r0,r2
        0x000016ac:    6088        .`      STR      r0,[r1,#8]
        0x000016ae:    4770        pG      BX       lr
    $d
        0x000016b0:    2000061c    ...     DCD    536872476
        0x000016b4:    40010000    ...@    DCD    1073807360
    $t
    i.TMR2_IRQHandler
    TMR2_IRQHandler
        0x000016b8:    480a        .H      LDR      r0,[pc,#40] ; [0x16e4] = 0x40110000
        0x000016ba:    6941        Ai      LDR      r1,[r0,#0x14]
        0x000016bc:    2210        ."      MOVS     r2,#0x10
        0x000016be:    4391        .C      BICS     r1,r1,r2
        0x000016c0:    6141        Aa      STR      r1,[r0,#0x14]
        0x000016c2:    6801        .h      LDR      r1,[r0,#0]
        0x000016c4:    0382        ..      LSLS     r2,r0,#14
        0x000016c6:    4311        .C      ORRS     r1,r1,r2
        0x000016c8:    6001        .`      STR      r1,[r0,#0]
        0x000016ca:    6981        .i      LDR      r1,[r0,#0x18]
        0x000016cc:    07c9        ..      LSLS     r1,r1,#31
        0x000016ce:    d007        ..      BEQ      0x16e0 ; TMR2_IRQHandler + 40
        0x000016d0:    6982        .i      LDR      r2,[r0,#0x18]
        0x000016d2:    2101        .!      MOVS     r1,#1
        0x000016d4:    430a        .C      ORRS     r2,r2,r1
        0x000016d6:    6182        .a      STR      r2,[r0,#0x18]
        0x000016d8:    6902        .i      LDR      r2,[r0,#0x10]
        0x000016da:    4803        .H      LDR      r0,[pc,#12] ; [0x16e8] = 0x2000061c
        0x000016dc:    6042        B`      STR      r2,[r0,#4]
        0x000016de:    6081        .`      STR      r1,[r0,#8]
        0x000016e0:    4770        pG      BX       lr
    $d
        0x000016e2:    0000        ..      DCW    0
        0x000016e4:    40110000    ...@    DCD    1074855936
        0x000016e8:    2000061c    ...     DCD    536872476
    $t
    i.UART02_IRQHandler
    UART02_IRQHandler
        0x000016ec:    b570        p.      PUSH     {r4-r6,lr}
        0x000016ee:    4807        .H      LDR      r0,[pc,#28] ; [0x170c] = 0x40050000
        0x000016f0:    69c0        .i      LDR      r0,[r0,#0x1c]
        0x000016f2:    4907        .I      LDR      r1,[pc,#28] ; [0x1710] = 0x40154000
        0x000016f4:    69cc        .i      LDR      r4,[r1,#0x1c]
        0x000016f6:    4d07        .M      LDR      r5,[pc,#28] ; [0x1714] = 0x20000684
        0x000016f8:    6829        )h      LDR      r1,[r5,#0]
        0x000016fa:    2900        .)      CMP      r1,#0
        0x000016fc:    d000        ..      BEQ      0x1700 ; UART02_IRQHandler + 20
        0x000016fe:    4788        .G      BLX      r1
        0x00001700:    68a9        .h      LDR      r1,[r5,#8]
        0x00001702:    2900        .)      CMP      r1,#0
        0x00001704:    d001        ..      BEQ      0x170a ; UART02_IRQHandler + 30
        0x00001706:    4620         F      MOV      r0,r4
        0x00001708:    4788        .G      BLX      r1
        0x0000170a:    bd70        p.      POP      {r4-r6,pc}
    $d
        0x0000170c:    40050000    ...@    DCD    1074069504
        0x00001710:    40154000    .@.@    DCD    1075134464
        0x00001714:    20000684    ...     DCD    536872580
    $t
    i.UART1_IRQHandler
    UART1_IRQHandler
        0x00001718:    4803        .H      LDR      r0,[pc,#12] ; [0x1728] = 0x40150000
        0x0000171a:    69c0        .i      LDR      r0,[r0,#0x1c]
        0x0000171c:    4903        .I      LDR      r1,[pc,#12] ; [0x172c] = 0x20000684
        0x0000171e:    6849        Ih      LDR      r1,[r1,#4]
        0x00001720:    2900        .)      CMP      r1,#0
        0x00001722:    d000        ..      BEQ      0x1726 ; UART1_IRQHandler + 14
        0x00001724:    4708        .G      BX       r1
        0x00001726:    4770        pG      BX       lr
    $d
        0x00001728:    40150000    ...@    DCD    1075118080
        0x0000172c:    20000684    ...     DCD    536872580
    $t
    i.UART_INT_HANDLE
    UART_INT_HANDLE
        0x00001730:    b5fe        ..      PUSH     {r1-r7,lr}
        0x00001732:    4913        .I      LDR      r1,[pc,#76] ; [0x1780] = 0x1ef0
        0x00001734:    4668        hF      MOV      r0,sp
        0x00001736:    c91c        ..      LDM      r1!,{r2-r4}
        0x00001738:    c01c        ..      STM      r0!,{r2-r4}
        0x0000173a:    4c12        .L      LDR      r4,[pc,#72] ; [0x1784] = 0x2000061c
        0x0000173c:    4f12        .O      LDR      r7,[pc,#72] ; [0x1788] = 0x40050000
        0x0000173e:    4d13        .M      LDR      r5,[pc,#76] ; [0x178c] = 0x200006a4
        0x00001740:    2600        .&      MOVS     r6,#0
        0x00001742:    e019        ..      B        0x1778 ; UART_INT_HANDLE + 72
        0x00001744:    6839        9h      LDR      r1,[r7,#0]
        0x00001746:    7820         x      LDRB     r0,[r4,#0]
        0x00001748:    5429        )T      STRB     r1,[r5,r0]
        0x0000174a:    7820         x      LDRB     r0,[r4,#0]
        0x0000174c:    1c40        @.      ADDS     r0,r0,#1
        0x0000174e:    7020         p      STRB     r0,[r4,#0]
        0x00001750:    7820         x      LDRB     r0,[r4,#0]
        0x00001752:    2803        .(      CMP      r0,#3
        0x00001754:    d110        ..      BNE      0x1778 ; UART_INT_HANDLE + 72
        0x00001756:    2209        ."      MOVS     r2,#9
        0x00001758:    4669        iF      MOV      r1,sp
        0x0000175a:    2000        .       MOVS     r0,#0
        0x0000175c:    f7fffaf8    ....    BL       DrvUART_Write ; 0xd50
        0x00001760:    4a0a        .J      LDR      r2,[pc,#40] ; [0x178c] = 0x200006a4
        0x00001762:    a10b        ..      ADR      r1,{pc}+0x2e ; 0x1790
        0x00001764:    4610        .F      MOV      r0,r2
        0x00001766:    3810        .8      SUBS     r0,r0,#0x10
        0x00001768:    f000f82e    ....    BL       __0sprintf$3 ; 0x17c8
        0x0000176c:    4907        .I      LDR      r1,[pc,#28] ; [0x178c] = 0x200006a4
        0x0000176e:    2000        .       MOVS     r0,#0
        0x00001770:    3910        .9      SUBS     r1,r1,#0x10
        0x00001772:    f000fb79    ..y.    BL       print_lcd ; 0x1e68
        0x00001776:    7026        &p      STRB     r6,[r4,#0]
        0x00001778:    69f8        .i      LDR      r0,[r7,#0x1c]
        0x0000177a:    07c0        ..      LSLS     r0,r0,#31
        0x0000177c:    d1e2        ..      BNE      0x1744 ; UART_INT_HANDLE + 20
        0x0000177e:    bdfe        ..      POP      {r1-r7,pc}
    $d
        0x00001780:    00001ef0    ....    DCD    7920
        0x00001784:    2000061c    ...     DCD    536872476
        0x00001788:    40050000    ...@    DCD    1074069504
        0x0000178c:    200006a4    ...     DCD    536872612
        0x00001790:    3a646d63    cmd:    DCD    979660131
        0x00001794:    00732520     %s.    DCD    7546144
    $t
    i.WriteData
    WriteData
        0x00001798:    490a        .I      LDR      r1,[pc,#40] ; [0x17c4] = 0x2000001c
        0x0000179a:    68c9        .h      LDR      r1,[r1,#0xc]
        0x0000179c:    688a        .h      LDR      r2,[r1,#8]
        0x0000179e:    0892        ..      LSRS     r2,r2,#2
        0x000017a0:    0092        ..      LSLS     r2,r2,#2
        0x000017a2:    1c52        R.      ADDS     r2,r2,#1
        0x000017a4:    608a        .`      STR      r2,[r1,#8]
        0x000017a6:    30ff        .0      ADDS     r0,r0,#0xff
        0x000017a8:    3001        .0      ADDS     r0,#1
        0x000017aa:    6208        .b      STR      r0,[r1,#0x20]
        0x000017ac:    6808        .h      LDR      r0,[r1,#0]
        0x000017ae:    2201        ."      MOVS     r2,#1
        0x000017b0:    4310        .C      ORRS     r0,r0,r2
        0x000017b2:    6008        .`      STR      r0,[r1,#0]
        0x000017b4:    6808        .h      LDR      r0,[r1,#0]
        0x000017b6:    07c0        ..      LSLS     r0,r0,#31
        0x000017b8:    d1fc        ..      BNE      0x17b4 ; WriteData + 28
        0x000017ba:    6888        .h      LDR      r0,[r1,#8]
        0x000017bc:    0880        ..      LSRS     r0,r0,#2
        0x000017be:    0080        ..      LSLS     r0,r0,#2
        0x000017c0:    6088        .`      STR      r0,[r1,#8]
        0x000017c2:    4770        pG      BX       lr
    $d
        0x000017c4:    2000001c    ...     DCD    536870940
    $t
    i.__0sprintf$3
    __0sprintf$3
    __1sprintf$3
    __2sprintf
        0x000017c8:    b40f        ..      PUSH     {r0-r3}
        0x000017ca:    b510        ..      PUSH     {r4,lr}
        0x000017cc:    a904        ..      ADD      r1,sp,#0x10
        0x000017ce:    aa02        ..      ADD      r2,sp,#8
        0x000017d0:    4b06        .K      LDR      r3,[pc,#24] ; [0x17ec] = 0x19e5
        0x000017d2:    9803        ..      LDR      r0,[sp,#0xc]
        0x000017d4:    f000f828    ..(.    BL       _printf_core ; 0x1828
        0x000017d8:    4604        .F      MOV      r4,r0
        0x000017da:    a902        ..      ADD      r1,sp,#8
        0x000017dc:    2000        .       MOVS     r0,#0
        0x000017de:    f000f901    ....    BL       _sputc ; 0x19e4
        0x000017e2:    4620         F      MOV      r0,r4
        0x000017e4:    bc10        ..      POP      {r4}
        0x000017e6:    bc08        ..      POP      {r3}
        0x000017e8:    b004        ..      ADD      sp,sp,#0x10
        0x000017ea:    4718        .G      BX       r3
    $d
        0x000017ec:    000019e5    ....    DCD    6629
    $t
    i.__ARM_common_switch8
    __ARM_common_switch8
        0x000017f0:    b430        0.      PUSH     {r4,r5}
        0x000017f2:    4674        tF      MOV      r4,lr
        0x000017f4:    1e64        d.      SUBS     r4,r4,#1
        0x000017f6:    7825        %x      LDRB     r5,[r4,#0]
        0x000017f8:    1c64        d.      ADDS     r4,r4,#1
        0x000017fa:    42ab        .B      CMP      r3,r5
        0x000017fc:    d200        ..      BCS      0x1800 ; __ARM_common_switch8 + 16
        0x000017fe:    461d        .F      MOV      r5,r3
        0x00001800:    5d63        c]      LDRB     r3,[r4,r5]
        0x00001802:    005b        [.      LSLS     r3,r3,#1
        0x00001804:    18e3        ..      ADDS     r3,r4,r3
        0x00001806:    bc30        0.      POP      {r4,r5}
        0x00001808:    4718        .G      BX       r3
    i.__scatterload_copy
    __scatterload_copy
        0x0000180a:    e002        ..      B        0x1812 ; __scatterload_copy + 8
        0x0000180c:    c808        ..      LDM      r0!,{r3}
        0x0000180e:    1f12        ..      SUBS     r2,r2,#4
        0x00001810:    c108        ..      STM      r1!,{r3}
        0x00001812:    2a00        .*      CMP      r2,#0
        0x00001814:    d1fa        ..      BNE      0x180c ; __scatterload_copy + 2
        0x00001816:    4770        pG      BX       lr
    i.__scatterload_null
    __scatterload_null
        0x00001818:    4770        pG      BX       lr
    i.__scatterload_zeroinit
    __scatterload_zeroinit
        0x0000181a:    2000        .       MOVS     r0,#0
        0x0000181c:    e001        ..      B        0x1822 ; __scatterload_zeroinit + 8
        0x0000181e:    c101        ..      STM      r1!,{r0}
        0x00001820:    1f12        ..      SUBS     r2,r2,#4
        0x00001822:    2a00        .*      CMP      r2,#0
        0x00001824:    d1fb        ..      BNE      0x181e ; __scatterload_zeroinit + 4
        0x00001826:    4770        pG      BX       lr
    i._printf_core
    _printf_core
        0x00001828:    b5ff        ..      PUSH     {r0-r7,lr}
        0x0000182a:    b08f        ..      SUB      sp,sp,#0x3c
        0x0000182c:    4605        .F      MOV      r5,r0
        0x0000182e:    460f        .F      MOV      r7,r1
        0x00001830:    2600        .&      MOVS     r6,#0
        0x00001832:    e0c8        ..      B        0x19c6 ; _printf_core + 414
        0x00001834:    2825        %(      CMP      r0,#0x25
        0x00001836:    d173        s.      BNE      0x1920 ; _printf_core + 248
        0x00001838:    2400        .$      MOVS     r4,#0
        0x0000183a:    1c6d        m.      ADDS     r5,r5,#1
        0x0000183c:    4a68        hJ      LDR      r2,[pc,#416] ; [0x19e0] = 0x12809
        0x0000183e:    2101        .!      MOVS     r1,#1
        0x00001840:    940e        ..      STR      r4,[sp,#0x38]
        0x00001842:    782b        +x      LDRB     r3,[r5,#0]
        0x00001844:    4608        .F      MOV      r0,r1
        0x00001846:    3b20         ;      SUBS     r3,r3,#0x20
        0x00001848:    4098        .@      LSLS     r0,r0,r3
        0x0000184a:    4603        .F      MOV      r3,r0
        0x0000184c:    4213        .B      TST      r3,r2
        0x0000184e:    d002        ..      BEQ      0x1856 ; _printf_core + 46
        0x00001850:    4304        .C      ORRS     r4,r4,r0
        0x00001852:    1c6d        m.      ADDS     r5,r5,#1
        0x00001854:    e7f5        ..      B        0x1842 ; _printf_core + 26
        0x00001856:    7828        (x      LDRB     r0,[r5,#0]
        0x00001858:    282e        .(      CMP      r0,#0x2e
        0x0000185a:    d115        ..      BNE      0x1888 ; _printf_core + 96
        0x0000185c:    2004        .       MOVS     r0,#4
        0x0000185e:    4304        .C      ORRS     r4,r4,r0
        0x00001860:    7868        hx      LDRB     r0,[r5,#1]
        0x00001862:    1c6d        m.      ADDS     r5,r5,#1
        0x00001864:    282a        *(      CMP      r0,#0x2a
        0x00001866:    d10a        ..      BNE      0x187e ; _printf_core + 86
        0x00001868:    cf01        ..      LDM      r7!,{r0}
        0x0000186a:    1c6d        m.      ADDS     r5,r5,#1
        0x0000186c:    900e        ..      STR      r0,[sp,#0x38]
        0x0000186e:    e00b        ..      B        0x1888 ; _printf_core + 96
        0x00001870:    990e        ..      LDR      r1,[sp,#0x38]
        0x00001872:    220a        ."      MOVS     r2,#0xa
        0x00001874:    4351        QC      MULS     r1,r2,r1
        0x00001876:    3930        09      SUBS     r1,r1,#0x30
        0x00001878:    1840        @.      ADDS     r0,r0,r1
        0x0000187a:    1c6d        m.      ADDS     r5,r5,#1
        0x0000187c:    900e        ..      STR      r0,[sp,#0x38]
        0x0000187e:    7828        (x      LDRB     r0,[r5,#0]
        0x00001880:    4601        .F      MOV      r1,r0
        0x00001882:    3930        09      SUBS     r1,r1,#0x30
        0x00001884:    2909        .)      CMP      r1,#9
        0x00001886:    d9f3        ..      BLS      0x1870 ; _printf_core + 72
        0x00001888:    7828        (x      LDRB     r0,[r5,#0]
        0x0000188a:    2869        i(      CMP      r0,#0x69
        0x0000188c:    d006        ..      BEQ      0x189c ; _printf_core + 116
        0x0000188e:    dc0d        ..      BGT      0x18ac ; _printf_core + 132
        0x00001890:    2800        .(      CMP      r0,#0
        0x00001892:    d072        r.      BEQ      0x197a ; _printf_core + 338
        0x00001894:    2863        c(      CMP      r0,#0x63
        0x00001896:    d011        ..      BEQ      0x18bc ; _printf_core + 148
        0x00001898:    2864        d(      CMP      r0,#0x64
        0x0000189a:    d1cc        ..      BNE      0x1836 ; _printf_core + 14
        0x0000189c:    200a        .       MOVS     r0,#0xa
        0x0000189e:    900d        ..      STR      r0,[sp,#0x34]
        0x000018a0:    cf01        ..      LDM      r7!,{r0}
        0x000018a2:    2800        .(      CMP      r0,#0
        0x000018a4:    da3d        =.      BGE      0x1922 ; _printf_core + 250
        0x000018a6:    4240        @B      RSBS     r0,r0,#0
        0x000018a8:    212d        -!      MOVS     r1,#0x2d
        0x000018aa:    e03d        =.      B        0x1928 ; _printf_core + 256
        0x000018ac:    2873        s(      CMP      r0,#0x73
        0x000018ae:    d00e        ..      BEQ      0x18ce ; _printf_core + 166
        0x000018b0:    2875        u(      CMP      r0,#0x75
        0x000018b2:    d1c0        ..      BNE      0x1836 ; _printf_core + 14
        0x000018b4:    200a        .       MOVS     r0,#0xa
        0x000018b6:    900d        ..      STR      r0,[sp,#0x34]
        0x000018b8:    cf01        ..      LDM      r7!,{r0}
        0x000018ba:    e03d        =.      B        0x1938 ; _printf_core + 272
        0x000018bc:    cf01        ..      LDM      r7!,{r0}
        0x000018be:    ab08        ..      ADD      r3,sp,#0x20
        0x000018c0:    7418        .t      STRB     r0,[r3,#0x10]
        0x000018c2:    2000        .       MOVS     r0,#0
        0x000018c4:    7458        Xt      STRB     r0,[r3,#0x11]
        0x000018c6:    a80c        ..      ADD      r0,sp,#0x30
        0x000018c8:    900d        ..      STR      r0,[sp,#0x34]
        0x000018ca:    2001        .       MOVS     r0,#1
        0x000018cc:    e003        ..      B        0x18d6 ; _printf_core + 174
        0x000018ce:    cf01        ..      LDM      r7!,{r0}
        0x000018d0:    900d        ..      STR      r0,[sp,#0x34]
        0x000018d2:    2000        .       MOVS     r0,#0
        0x000018d4:    43c0        .C      MVNS     r0,r0
        0x000018d6:    0761        a.      LSLS     r1,r4,#29
        0x000018d8:    d50c        ..      BPL      0x18f4 ; _printf_core + 204
        0x000018da:    2400        .$      MOVS     r4,#0
        0x000018dc:    e000        ..      B        0x18e0 ; _printf_core + 184
        0x000018de:    1c64        d.      ADDS     r4,r4,#1
        0x000018e0:    990e        ..      LDR      r1,[sp,#0x38]
        0x000018e2:    428c        .B      CMP      r4,r1
        0x000018e4:    da0f        ..      BGE      0x1906 ; _printf_core + 222
        0x000018e6:    4284        .B      CMP      r4,r0
        0x000018e8:    dbf9        ..      BLT      0x18de ; _printf_core + 182
        0x000018ea:    990d        ..      LDR      r1,[sp,#0x34]
        0x000018ec:    5d09        .]      LDRB     r1,[r1,r4]
        0x000018ee:    2900        .)      CMP      r1,#0
        0x000018f0:    d1f5        ..      BNE      0x18de ; _printf_core + 182
        0x000018f2:    e008        ..      B        0x1906 ; _printf_core + 222
        0x000018f4:    2400        .$      MOVS     r4,#0
        0x000018f6:    e000        ..      B        0x18fa ; _printf_core + 210
        0x000018f8:    1c64        d.      ADDS     r4,r4,#1
        0x000018fa:    4284        .B      CMP      r4,r0
        0x000018fc:    dbfc        ..      BLT      0x18f8 ; _printf_core + 208
        0x000018fe:    990d        ..      LDR      r1,[sp,#0x34]
        0x00001900:    5d09        .]      LDRB     r1,[r1,r4]
        0x00001902:    2900        .)      CMP      r1,#0
        0x00001904:    d1f8        ..      BNE      0x18f8 ; _printf_core + 208
        0x00001906:    1936        6.      ADDS     r6,r6,r4
        0x00001908:    e007        ..      B        0x191a ; _printf_core + 242
        0x0000190a:    980d        ..      LDR      r0,[sp,#0x34]
        0x0000190c:    990d        ..      LDR      r1,[sp,#0x34]
        0x0000190e:    7800        .x      LDRB     r0,[r0,#0]
        0x00001910:    1c49        I.      ADDS     r1,r1,#1
        0x00001912:    910d        ..      STR      r1,[sp,#0x34]
        0x00001914:    9a12        ..      LDR      r2,[sp,#0x48]
        0x00001916:    9911        ..      LDR      r1,[sp,#0x44]
        0x00001918:    4790        .G      BLX      r2
        0x0000191a:    1e64        d.      SUBS     r4,r4,#1
        0x0000191c:    d2f5        ..      BCS      0x190a ; _printf_core + 226
        0x0000191e:    e051        Q.      B        0x19c4 ; _printf_core + 412
        0x00001920:    e058        X.      B        0x19d4 ; _printf_core + 428
        0x00001922:    0521        !.      LSLS     r1,r4,#20
        0x00001924:    d504        ..      BPL      0x1930 ; _printf_core + 264
        0x00001926:    212b        +!      MOVS     r1,#0x2b
        0x00001928:    466b        kF      MOV      r3,sp
        0x0000192a:    7319        .s      STRB     r1,[r3,#0xc]
        0x0000192c:    2101        .!      MOVS     r1,#1
        0x0000192e:    e004        ..      B        0x193a ; _printf_core + 274
        0x00001930:    07e1        ..      LSLS     r1,r4,#31
        0x00001932:    d001        ..      BEQ      0x1938 ; _printf_core + 272
        0x00001934:    2120         !      MOVS     r1,#0x20
        0x00001936:    e7f7        ..      B        0x1928 ; _printf_core + 256
        0x00001938:    2100        .!      MOVS     r1,#0
        0x0000193a:    9101        ..      STR      r1,[sp,#4]
        0x0000193c:    a90d        ..      ADD      r1,sp,#0x34
        0x0000193e:    9104        ..      STR      r1,[sp,#0x10]
        0x00001940:    e007        ..      B        0x1952 ; _printf_core + 298
        0x00001942:    990d        ..      LDR      r1,[sp,#0x34]
        0x00001944:    f7fefbec    ....    BL       __aeabi_uidiv ; 0x120
        0x00001948:    9a04        ..      LDR      r2,[sp,#0x10]
        0x0000194a:    3130        01      ADDS     r1,r1,#0x30
        0x0000194c:    1e52        R.      SUBS     r2,r2,#1
        0x0000194e:    9204        ..      STR      r2,[sp,#0x10]
        0x00001950:    7011        .p      STRB     r1,[r2,#0]
        0x00001952:    2800        .(      CMP      r0,#0
        0x00001954:    d1f5        ..      BNE      0x1942 ; _printf_core + 282
        0x00001956:    9804        ..      LDR      r0,[sp,#0x10]
        0x00001958:    a905        ..      ADD      r1,sp,#0x14
        0x0000195a:    1a08        ..      SUBS     r0,r1,r0
        0x0000195c:    3020         0      ADDS     r0,r0,#0x20
        0x0000195e:    9002        ..      STR      r0,[sp,#8]
        0x00001960:    0760        `.      LSLS     r0,r4,#29
        0x00001962:    d401        ..      BMI      0x1968 ; _printf_core + 320
        0x00001964:    2001        .       MOVS     r0,#1
        0x00001966:    900e        ..      STR      r0,[sp,#0x38]
        0x00001968:    9a02        ..      LDR      r2,[sp,#8]
        0x0000196a:    990e        ..      LDR      r1,[sp,#0x38]
        0x0000196c:    2000        .       MOVS     r0,#0
        0x0000196e:    4291        .B      CMP      r1,r2
        0x00001970:    dd00        ..      BLE      0x1974 ; _printf_core + 332
        0x00001972:    1a88        ..      SUBS     r0,r1,r2
        0x00001974:    2400        .$      MOVS     r4,#0
        0x00001976:    900e        ..      STR      r0,[sp,#0x38]
        0x00001978:    e007        ..      B        0x198a ; _printf_core + 354
        0x0000197a:    e028        (.      B        0x19ce ; _printf_core + 422
        0x0000197c:    a803        ..      ADD      r0,sp,#0xc
        0x0000197e:    9a12        ..      LDR      r2,[sp,#0x48]
        0x00001980:    5d00        .]      LDRB     r0,[r0,r4]
        0x00001982:    9911        ..      LDR      r1,[sp,#0x44]
        0x00001984:    4790        .G      BLX      r2
        0x00001986:    1c76        v.      ADDS     r6,r6,#1
        0x00001988:    1c64        d.      ADDS     r4,r4,#1
        0x0000198a:    9801        ..      LDR      r0,[sp,#4]
        0x0000198c:    4284        .B      CMP      r4,r0
        0x0000198e:    dbf5        ..      BLT      0x197c ; _printf_core + 340
        0x00001990:    e004        ..      B        0x199c ; _printf_core + 372
        0x00001992:    9a12        ..      LDR      r2,[sp,#0x48]
        0x00001994:    2030        0       MOVS     r0,#0x30
        0x00001996:    9911        ..      LDR      r1,[sp,#0x44]
        0x00001998:    4790        .G      BLX      r2
        0x0000199a:    1c76        v.      ADDS     r6,r6,#1
        0x0000199c:    980e        ..      LDR      r0,[sp,#0x38]
        0x0000199e:    1e41        A.      SUBS     r1,r0,#1
        0x000019a0:    910e        ..      STR      r1,[sp,#0x38]
        0x000019a2:    2800        .(      CMP      r0,#0
        0x000019a4:    dcf5        ..      BGT      0x1992 ; _printf_core + 362
        0x000019a6:    e008        ..      B        0x19ba ; _printf_core + 402
        0x000019a8:    9804        ..      LDR      r0,[sp,#0x10]
        0x000019aa:    9904        ..      LDR      r1,[sp,#0x10]
        0x000019ac:    7800        .x      LDRB     r0,[r0,#0]
        0x000019ae:    1c49        I.      ADDS     r1,r1,#1
        0x000019b0:    9104        ..      STR      r1,[sp,#0x10]
        0x000019b2:    9a12        ..      LDR      r2,[sp,#0x48]
        0x000019b4:    9911        ..      LDR      r1,[sp,#0x44]
        0x000019b6:    4790        .G      BLX      r2
        0x000019b8:    1c76        v.      ADDS     r6,r6,#1
        0x000019ba:    9802        ..      LDR      r0,[sp,#8]
        0x000019bc:    1e41        A.      SUBS     r1,r0,#1
        0x000019be:    9102        ..      STR      r1,[sp,#8]
        0x000019c0:    2800        .(      CMP      r0,#0
        0x000019c2:    dcf1        ..      BGT      0x19a8 ; _printf_core + 384
        0x000019c4:    1c6d        m.      ADDS     r5,r5,#1
        0x000019c6:    7828        (x      LDRB     r0,[r5,#0]
        0x000019c8:    2800        .(      CMP      r0,#0
        0x000019ca:    d000        ..      BEQ      0x19ce ; _printf_core + 422
        0x000019cc:    e732        2.      B        0x1834 ; _printf_core + 12
        0x000019ce:    4630        0F      MOV      r0,r6
        0x000019d0:    b013        ..      ADD      sp,sp,#0x4c
        0x000019d2:    bdf0        ..      POP      {r4-r7,pc}
        0x000019d4:    9a12        ..      LDR      r2,[sp,#0x48]
        0x000019d6:    9911        ..      LDR      r1,[sp,#0x44]
        0x000019d8:    4790        .G      BLX      r2
        0x000019da:    1c76        v.      ADDS     r6,r6,#1
        0x000019dc:    e7f2        ..      B        0x19c4 ; _printf_core + 412
    $d
        0x000019de:    0000        ..      DCW    0
        0x000019e0:    00012809    .(..    DCD    75785
    $t
    i._sputc
    _sputc
        0x000019e4:    680a        .h      LDR      r2,[r1,#0]
        0x000019e6:    1c53        S.      ADDS     r3,r2,#1
        0x000019e8:    600b        .`      STR      r3,[r1,#0]
        0x000019ea:    7010        .p      STRB     r0,[r2,#0]
        0x000019ec:    4770        pG      BX       lr
    i.clr_all_panel
    clr_all_panel
        0x000019ee:    b510        ..      PUSH     {r4,lr}
        0x000019f0:    2400        .$      MOVS     r4,#0
        0x000019f2:    4621        !F      MOV      r1,r4
        0x000019f4:    4620         F      MOV      r0,r4
        0x000019f6:    f7fffda7    ....    BL       SetPACA ; 0x1548
        0x000019fa:    2321        !#      MOVS     r3,#0x21
        0x000019fc:    015b        [.      LSLS     r3,r3,#5
        0x000019fe:    2000        .       MOVS     r0,#0
        0x00001a00:    f7fffeca    ....    BL       WriteData ; 0x1798
        0x00001a04:    1c64        d.      ADDS     r4,r4,#1
        0x00001a06:    429c        .B      CMP      r4,r3
        0x00001a08:    dbf9        ..      BLT      0x19fe ; clr_all_panel + 16
        0x00001a0a:    200f        .       MOVS     r0,#0xf
        0x00001a0c:    f7fffec4    ....    BL       WriteData ; 0x1798
        0x00001a10:    bd10        ..      POP      {r4,pc}
    i.delay
    delay
        0x00001a12:    2000        .       MOVS     r0,#0
        0x00001a14:    217d        }!      MOVS     r1,#0x7d
        0x00001a16:    00c9        ..      LSLS     r1,r1,#3
        0x00001a18:    1c40        @.      ADDS     r0,r0,#1
        0x00001a1a:    4288        .B      CMP      r0,r1
        0x00001a1c:    dbfc        ..      BLT      0x1a18 ; delay + 6
        0x00001a1e:    4770        pG      BX       lr
    i.delay_sec
    delay_sec
        0x00001a20:    b570        p.      PUSH     {r4-r6,lr}
        0x00001a22:    4605        .F      MOV      r5,r0
        0x00001a24:    2400        .$      MOVS     r4,#0
        0x00001a26:    4e07        .N      LDR      r6,[pc,#28] ; [0x1a44] = 0x51c98
        0x00001a28:    e009        ..      B        0x1a3e ; delay_sec + 30
        0x00001a2a:    4630        0F      MOV      r0,r6
        0x00001a2c:    f7fefee0    ....    BL       DrvSYS_Delay ; 0x7f0
        0x00001a30:    4630        0F      MOV      r0,r6
        0x00001a32:    f7fefedd    ....    BL       DrvSYS_Delay ; 0x7f0
        0x00001a36:    4630        0F      MOV      r0,r6
        0x00001a38:    f7fefeda    ....    BL       DrvSYS_Delay ; 0x7f0
        0x00001a3c:    1c64        d.      ADDS     r4,r4,#1
        0x00001a3e:    42ac        .B      CMP      r4,r5
        0x00001a40:    dbf3        ..      BLT      0x1a2a ; delay_sec + 10
        0x00001a42:    bd70        p.      POP      {r4-r6,pc}
    $d
        0x00001a44:    00051c98    ....    DCD    335000
    $t
    i.display_status
    display_status
        0x00001a48:    b510        ..      PUSH     {r4,lr}
        0x00001a4a:    4604        .F      MOV      r4,r0
        0x00001a4c:    f7ffffcf    ....    BL       clr_all_panel ; 0x19ee
        0x00001a50:    2c00        .,      CMP      r4,#0
        0x00001a52:    d001        ..      BEQ      0x1a58 ; display_status + 16
        0x00001a54:    4903        .I      LDR      r1,[pc,#12] ; [0x1a64] = 0x1f08
        0x00001a56:    e001        ..      B        0x1a5c ; display_status + 20
        0x00001a58:    4902        .I      LDR      r1,[pc,#8] ; [0x1a64] = 0x1f08
        0x00001a5a:    3114        .1      ADDS     r1,r1,#0x14
        0x00001a5c:    2000        .       MOVS     r0,#0
        0x00001a5e:    f000fa03    ....    BL       print_lcd ; 0x1e68
        0x00001a62:    bd10        ..      POP      {r4,pc}
    $d
        0x00001a64:    00001f08    ....    DCD    7944
    $t
    i.generateOTP
    generateOTP
        0x00001a68:    b570        p.      PUSH     {r4-r6,lr}
        0x00001a6a:    f7fefc2d    ..-.    BL       DistMeasure ; 0x2c8
        0x00001a6e:    f7fefb8a    ....    BL       srand ; 0x186
        0x00001a72:    2400        .$      MOVS     r4,#0
        0x00001a74:    4d06        .M      LDR      r5,[pc,#24] ; [0x1a90] = 0x20000639
        0x00001a76:    f7fefb7d    ..}.    BL       rand ; 0x174
        0x00001a7a:    2109        .!      MOVS     r1,#9
        0x00001a7c:    f7fefb66    ..f.    BL       __aeabi_idiv ; 0x14c
        0x00001a80:    3131        11      ADDS     r1,r1,#0x31
        0x00001a82:    5529        )U      STRB     r1,[r5,r4]
        0x00001a84:    1c64        d.      ADDS     r4,r4,#1
        0x00001a86:    2c04        .,      CMP      r4,#4
        0x00001a88:    dbf5        ..      BLT      0x1a76 ; generateOTP + 14
        0x00001a8a:    2000        .       MOVS     r0,#0
        0x00001a8c:    7128        (q      STRB     r0,[r5,#4]
        0x00001a8e:    bd70        p.      POP      {r4-r6,pc}
    $d
        0x00001a90:    20000639    9..     DCD    536872505
    $t
    i.main
    main
        0x00001a94:    b5fe        ..      PUSH     {r1-r7,lr}
        0x00001a96:    2501        .%      MOVS     r5,#1
        0x00001a98:    4cc0        .L      LDR      r4,[pc,#768] ; [0x1d9c] = 0x50000100
        0x00001a9a:    2059        Y       MOVS     r0,#0x59
        0x00001a9c:    6020         `      STR      r0,[r4,#0]
        0x00001a9e:    2016        .       MOVS     r0,#0x16
        0x00001aa0:    6020         `      STR      r0,[r4,#0]
        0x00001aa2:    2088        .       MOVS     r0,#0x88
        0x00001aa4:    6020         `      STR      r0,[r4,#0]
        0x00001aa6:    4629        )F      MOV      r1,r5
        0x00001aa8:    2000        .       MOVS     r0,#0
        0x00001aaa:    f7feffbd    ....    BL       DrvSYS_SetOscCtrl ; 0xa28
        0x00001aae:    2000        .       MOVS     r0,#0
        0x00001ab0:    f7fefeb0    ....    BL       DrvSYS_GetChipClockSourceStatus ; 0x814
        0x00001ab4:    2800        .(      CMP      r0,#0
        0x00001ab6:    d0fa        ..      BEQ      0x1aae ; main + 26
        0x00001ab8:    48b9        .H      LDR      r0,[pc,#740] ; [0x1da0] = 0x2faf080
        0x00001aba:    f7feff59    ..Y.    BL       DrvSYS_Open ; 0x970
        0x00001abe:    2700        .'      MOVS     r7,#0
        0x00001ac0:    6027        '`      STR      r7,[r4,#0]
        0x00001ac2:    2029        )       MOVS     r0,#0x29
        0x00001ac4:    f7fefc66    ..f.    BL       DrvGPIO_InitFunction ; 0x394
        0x00001ac8:    204b        K       MOVS     r0,#0x4b
        0x00001aca:    01c0        ..      LSLS     r0,r0,#7
        0x00001acc:    9000        ..      STR      r0,[sp,#0]
        0x00001ace:    2003        .       MOVS     r0,#3
        0x00001ad0:    466b        kF      MOV      r3,sp
        0x00001ad2:    7118        .q      STRB     r0,[r3,#4]
        0x00001ad4:    715f        _q      STRB     r7,[r3,#5]
        0x00001ad6:    719f        .q      STRB     r7,[r3,#6]
        0x00001ad8:    71df        .q      STRB     r7,[r3,#7]
        0x00001ada:    4669        iF      MOV      r1,sp
        0x00001adc:    2000        .       MOVS     r0,#0
        0x00001ade:    f7fff859    ..Y.    BL       DrvUART_Open ; 0xb94
        0x00001ae2:    4ab0        .J      LDR      r2,[pc,#704] ; [0x1da4] = 0x1731
        0x00001ae4:    2101        .!      MOVS     r1,#1
        0x00001ae6:    2000        .       MOVS     r0,#0
        0x00001ae8:    f7feffe6    ....    BL       DrvUART_EnableInt ; 0xab8
        0x00001aec:    f7fffba4    ....    BL       Initial_panel ; 0x1238
        0x00001af0:    f7ffff7d    ..}.    BL       clr_all_panel ; 0x19ee
        0x00001af4:    2001        .       MOVS     r0,#1
        0x00001af6:    f7ffffa7    ....    BL       display_status ; 0x1a48
        0x00001afa:    f7fffc1d    ....    BL       OpenKeyPad ; 0x1338
        0x00001afe:    f7fffb0d    ....    BL       InitTIMER0 ; 0x111c
        0x00001b02:    f7fffb4f    ..O.    BL       Init_TMR2 ; 0x11a4
        0x00001b06:    f7fffb39    ..9.    BL       Init_GPIO_SR04 ; 0x117c
        0x00001b0a:    2000        .       MOVS     r0,#0
        0x00001b0c:    f7fff988    ....    BL       InitPWM ; 0xe20
        0x00001b10:    4ca5        .L      LDR      r4,[pc,#660] ; [0x1da8] = 0x2000061c
        0x00001b12:    2101        .!      MOVS     r1,#1
        0x00001b14:    2005        .       MOVS     r0,#5
        0x00001b16:    60e7        .`      STR      r7,[r4,#0xc]
        0x00001b18:    f7fefe50    ..P.    BL       DrvGPIO_SetDebounceTime ; 0x7bc
        0x00001b1c:    210f        .!      MOVS     r1,#0xf
        0x00001b1e:    2000        .       MOVS     r0,#0
        0x00001b20:    f7fefc14    ....    BL       DrvGPIO_EnableDebounce ; 0x34c
        0x00001b24:    210f        .!      MOVS     r1,#0xf
        0x00001b26:    2004        .       MOVS     r0,#4
        0x00001b28:    f7fefc10    ....    BL       DrvGPIO_EnableDebounce ; 0x34c
        0x00001b2c:    4e9e        .N      LDR      r6,[pc,#632] ; [0x1da8] = 0x2000061c
        0x00001b2e:    7870        px      LDRB     r0,[r6,#1]
        0x00001b30:    2800        .(      CMP      r0,#0
        0x00001b32:    d017        ..      BEQ      0x1b64 ; main + 208
        0x00001b34:    2801        .(      CMP      r0,#1
        0x00001b36:    d032        2.      BEQ      0x1b9e ; main + 266
        0x00001b38:    2802        .(      CMP      r0,#2
        0x00001b3a:    d073        s.      BEQ      0x1c24 ; main + 400
        0x00001b3c:    2803        .(      CMP      r0,#3
        0x00001b3e:    d1f5        ..      BNE      0x1b2c ; main + 152
        0x00001b40:    f7ffff55    ..U.    BL       clr_all_panel ; 0x19ee
        0x00001b44:    a199        ..      ADR      r1,{pc}+0x268 ; 0x1dac
        0x00001b46:    2001        .       MOVS     r0,#1
        0x00001b48:    f000f98e    ....    BL       print_lcd ; 0x1e68
        0x00001b4c:    f000f9ba    ....    BL       servo_open ; 0x1ec4
        0x00001b50:    2003        .       MOVS     r0,#3
        0x00001b52:    f7ffff65    ..e.    BL       delay_sec ; 0x1a20
        0x00001b56:    a199        ..      ADR      r1,{pc}+0x266 ; 0x1dbc
        0x00001b58:    2001        .       MOVS     r0,#1
        0x00001b5a:    f000f985    ....    BL       print_lcd ; 0x1e68
        0x00001b5e:    f000f9ab    ....    BL       servo_close ; 0x1eb8
        0x00001b62:    e07c        |.      B        0x1c5e ; main + 458
        0x00001b64:    f7ffff43    ..C.    BL       clr_all_panel ; 0x19ee
        0x00001b68:    2001        .       MOVS     r0,#1
        0x00001b6a:    f7ffff6d    ..m.    BL       display_status ; 0x1a48
        0x00001b6e:    a197        ..      ADR      r1,{pc}+0x25e ; 0x1dcc
        0x00001b70:    2001        .       MOVS     r0,#1
        0x00001b72:    f000f979    ..y.    BL       print_lcd ; 0x1e68
        0x00001b76:    f7fefba7    ....    BL       DistMeasure ; 0x2c8
        0x00001b7a:    6930        0i      LDR      r0,[r6,#0x10]
        0x00001b7c:    2864        d(      CMP      r0,#0x64
        0x00001b7e:    d8d5        ..      BHI      0x1b2c ; main + 152
        0x00001b80:    4894        .H      LDR      r0,[pc,#592] ; [0x1dd4] = 0x40010000
        0x00001b82:    6801        .h      LDR      r1,[r0,#0]
        0x00001b84:    0382        ..      LSLS     r2,r0,#14
        0x00001b86:    4311        .C      ORRS     r1,r1,r2
        0x00001b88:    6001        .`      STR      r1,[r0,#0]
        0x00001b8a:    68f1        .h      LDR      r1,[r6,#0xc]
        0x00001b8c:    2903        .)      CMP      r1,#3
        0x00001b8e:    d1cd        ..      BNE      0x1b2c ; main + 152
        0x00001b90:    2101        .!      MOVS     r1,#1
        0x00001b92:    7071        qp      STRB     r1,[r6,#1]
        0x00001b94:    6801        .h      LDR      r1,[r0,#0]
        0x00001b96:    4391        .C      BICS     r1,r1,r2
        0x00001b98:    6001        .`      STR      r1,[r0,#0]
        0x00001b9a:    60f7        .`      STR      r7,[r6,#0xc]
        0x00001b9c:    e7c6        ..      B        0x1b2c ; main + 152
        0x00001b9e:    f7ffff26    ..&.    BL       clr_all_panel ; 0x19ee
        0x00001ba2:    2001        .       MOVS     r0,#1
        0x00001ba4:    f7ffff50    ..P.    BL       display_status ; 0x1a48
        0x00001ba8:    a18b        ..      ADR      r1,{pc}+0x230 ; 0x1dd8
        0x00001baa:    2001        .       MOVS     r0,#1
        0x00001bac:    f000f95c    ..\.    BL       print_lcd ; 0x1e68
        0x00001bb0:    2400        .$      MOVS     r4,#0
        0x00001bb2:    f7fffc8f    ....    BL       Scankey ; 0x14d4
        0x00001bb6:    2800        .(      CMP      r0,#0
        0x00001bb8:    d0fb        ..      BEQ      0x1bb2 ; main + 286
        0x00001bba:    3030        00      ADDS     r0,r0,#0x30
        0x00001bbc:    b2c2        ..      UXTB     r2,r0
        0x00001bbe:    487a        zH      LDR      r0,[pc,#488] ; [0x1da8] = 0x2000061c
        0x00001bc0:    a189        ..      ADR      r1,{pc}+0x228 ; 0x1de8
        0x00001bc2:    3027        '0      ADDS     r0,r0,#0x27
        0x00001bc4:    5502        .U      STRB     r2,[r0,r4]
        0x00001bc6:    1d40        @.      ADDS     r0,r0,#5
        0x00001bc8:    1900        ..      ADDS     r0,r0,r4
        0x00001bca:    f7fffdfd    ....    BL       __0sprintf$3 ; 0x17c8
        0x00001bce:    4976        vI      LDR      r1,[pc,#472] ; [0x1da8] = 0x2000061c
        0x00001bd0:    2002        .       MOVS     r0,#2
        0x00001bd2:    312c        ,1      ADDS     r1,r1,#0x2c
        0x00001bd4:    f000f948    ..H.    BL       print_lcd ; 0x1e68
        0x00001bd8:    f7fffc7c    ..|.    BL       Scankey ; 0x14d4
        0x00001bdc:    2800        .(      CMP      r0,#0
        0x00001bde:    d1fb        ..      BNE      0x1bd8 ; main + 324
        0x00001be0:    1c64        d.      ADDS     r4,r4,#1
        0x00001be2:    2c04        .,      CMP      r4,#4
        0x00001be4:    dbe5        ..      BLT      0x1bb2 ; main + 286
        0x00001be6:    4870        pH      LDR      r0,[pc,#448] ; [0x1da8] = 0x2000061c
        0x00001be8:    3027        '0      ADDS     r0,r0,#0x27
        0x00001bea:    7107        .q      STRB     r7,[r0,#4]
        0x00001bec:    f7fffeff    ....    BL       clr_all_panel ; 0x19ee
        0x00001bf0:    2001        .       MOVS     r0,#1
        0x00001bf2:    f7ffff29    ..).    BL       display_status ; 0x1a48
        0x00001bf6:    496c        lI      LDR      r1,[pc,#432] ; [0x1da8] = 0x2000061c
        0x00001bf8:    3118        .1      ADDS     r1,r1,#0x18
        0x00001bfa:    4608        .F      MOV      r0,r1
        0x00001bfc:    300f        .0      ADDS     r0,r0,#0xf
        0x00001bfe:    f7fefaec    ....    BL       strcmp ; 0x1da
        0x00001c02:    2800        .(      CMP      r0,#0
        0x00001c04:    d10f        ..      BNE      0x1c26 ; main + 402
        0x00001c06:    a179        y.      ADR      r1,{pc}+0x1e6 ; 0x1dec
        0x00001c08:    2002        .       MOVS     r0,#2
        0x00001c0a:    f000f92d    ..-.    BL       print_lcd ; 0x1e68
        0x00001c0e:    2002        .       MOVS     r0,#2
        0x00001c10:    f7ffff06    ....    BL       delay_sec ; 0x1a20
        0x00001c14:    2002        .       MOVS     r0,#2
        0x00001c16:    7070        pp      STRB     r0,[r6,#1]
        0x00001c18:    f7ffff26    ..&.    BL       generateOTP ; 0x1a68
        0x00001c1c:    f000f936    ..6.    BL       sendOTP ; 0x1e8c
        0x00001c20:    2501        .%      MOVS     r5,#1
        0x00001c22:    e783        ..      B        0x1b2c ; main + 152
        0x00001c24:    e01d        ..      B        0x1c62 ; main + 462
        0x00001c26:    a174        t.      ADR      r1,{pc}+0x1d2 ; 0x1df8
        0x00001c28:    2002        .       MOVS     r0,#2
        0x00001c2a:    f000f91d    ....    BL       print_lcd ; 0x1e68
        0x00001c2e:    2003        .       MOVS     r0,#3
        0x00001c30:    1b42        B.      SUBS     r2,r0,r5
        0x00001c32:    485d        ]H      LDR      r0,[pc,#372] ; [0x1da8] = 0x2000061c
        0x00001c34:    a173        s.      ADR      r1,{pc}+0x1d0 ; 0x1e04
        0x00001c36:    303d        =0      ADDS     r0,r0,#0x3d
        0x00001c38:    f7fffdc6    ....    BL       __0sprintf$3 ; 0x17c8
        0x00001c3c:    495a        ZI      LDR      r1,[pc,#360] ; [0x1da8] = 0x2000061c
        0x00001c3e:    2003        .       MOVS     r0,#3
        0x00001c40:    313d        =1      ADDS     r1,r1,#0x3d
        0x00001c42:    f000f911    ....    BL       print_lcd ; 0x1e68
        0x00001c46:    2002        .       MOVS     r0,#2
        0x00001c48:    f7fffeea    ....    BL       delay_sec ; 0x1a20
        0x00001c4c:    1c6d        m.      ADDS     r5,r5,#1
        0x00001c4e:    2d04        .-      CMP      r5,#4
        0x00001c50:    d1a4        ..      BNE      0x1b9c ; main + 264
        0x00001c52:    f7fffecc    ....    BL       clr_all_panel ; 0x19ee
        0x00001c56:    a16f        o.      ADR      r1,{pc}+0x1be ; 0x1e14
        0x00001c58:    2002        .       MOVS     r0,#2
        0x00001c5a:    f000f905    ....    BL       print_lcd ; 0x1e68
        0x00001c5e:    7077        wp      STRB     r7,[r6,#1]
        0x00001c60:    e764        d.      B        0x1b2c ; main + 152
        0x00001c62:    f7fffec4    ....    BL       clr_all_panel ; 0x19ee
        0x00001c66:    4850        PH      LDR      r0,[pc,#320] ; [0x1da8] = 0x2000061c
        0x00001c68:    2104        .!      MOVS     r1,#4
        0x00001c6a:    302c        ,0      ADDS     r0,r0,#0x2c
        0x00001c6c:    f7fefa9b    ....    BL       __aeabi_memclr ; 0x1a6
        0x00001c70:    2001        .       MOVS     r0,#1
        0x00001c72:    f7fffee9    ....    BL       display_status ; 0x1a48
        0x00001c76:    4957        WI      LDR      r1,[pc,#348] ; [0x1dd4] = 0x40010000
        0x00001c78:    680a        .h      LDR      r2,[r1,#0]
        0x00001c7a:    0388        ..      LSLS     r0,r1,#14
        0x00001c7c:    4302        .C      ORRS     r2,r2,r0
        0x00001c7e:    600a        .`      STR      r2,[r1,#0]
        0x00001c80:    a169        i.      ADR      r1,{pc}+0x1a8 ; 0x1e28
        0x00001c82:    2002        .       MOVS     r0,#2
        0x00001c84:    f000f8f0    ....    BL       print_lcd ; 0x1e68
        0x00001c88:    2002        .       MOVS     r0,#2
        0x00001c8a:    f7fffec9    ....    BL       delay_sec ; 0x1a20
        0x00001c8e:    f7fffeae    ....    BL       clr_all_panel ; 0x19ee
        0x00001c92:    e07d        }.      B        0x1d90 ; main + 764
        0x00001c94:    f7fffeab    ....    BL       clr_all_panel ; 0x19ee
        0x00001c98:    a167        g.      ADR      r1,{pc}+0x1a0 ; 0x1e38
        0x00001c9a:    2001        .       MOVS     r0,#1
        0x00001c9c:    f000f8e4    ....    BL       print_lcd ; 0x1e68
        0x00001ca0:    4e41        AN      LDR      r6,[pc,#260] ; [0x1da8] = 0x2000061c
        0x00001ca2:    2400        .$      MOVS     r4,#0
        0x00001ca4:    3622        "6      ADDS     r6,r6,#0x22
        0x00001ca6:    f7fffc15    ....    BL       Scankey ; 0x14d4
        0x00001caa:    2800        .(      CMP      r0,#0
        0x00001cac:    d0fb        ..      BEQ      0x1ca6 ; main + 530
        0x00001cae:    3030        00      ADDS     r0,r0,#0x30
        0x00001cb0:    b2c2        ..      UXTB     r2,r0
        0x00001cb2:    483d        =H      LDR      r0,[pc,#244] ; [0x1da8] = 0x2000061c
        0x00001cb4:    5532        2U      STRB     r2,[r6,r4]
        0x00001cb6:    302c        ,0      ADDS     r0,r0,#0x2c
        0x00001cb8:    1900        ..      ADDS     r0,r0,r4
        0x00001cba:    a14b        K.      ADR      r1,{pc}+0x12e ; 0x1de8
        0x00001cbc:    f7fffd84    ....    BL       __0sprintf$3 ; 0x17c8
        0x00001cc0:    4939        9I      LDR      r1,[pc,#228] ; [0x1da8] = 0x2000061c
        0x00001cc2:    2002        .       MOVS     r0,#2
        0x00001cc4:    312c        ,1      ADDS     r1,r1,#0x2c
        0x00001cc6:    f000f8cf    ....    BL       print_lcd ; 0x1e68
        0x00001cca:    f7fffc03    ....    BL       Scankey ; 0x14d4
        0x00001cce:    2800        .(      CMP      r0,#0
        0x00001cd0:    d1fb        ..      BNE      0x1cca ; main + 566
        0x00001cd2:    1c64        d.      ADDS     r4,r4,#1
        0x00001cd4:    2c04        .,      CMP      r4,#4
        0x00001cd6:    dbe6        ..      BLT      0x1ca6 ; main + 530
        0x00001cd8:    4933        3I      LDR      r1,[pc,#204] ; [0x1da8] = 0x2000061c
        0x00001cda:    7137        7q      STRB     r7,[r6,#4]
        0x00001cdc:    3122        "1      ADDS     r1,r1,#0x22
        0x00001cde:    2003        .       MOVS     r0,#3
        0x00001ce0:    f000f8c2    ....    BL       print_lcd ; 0x1e68
        0x00001ce4:    2002        .       MOVS     r0,#2
        0x00001ce6:    f7fffe9b    ....    BL       delay_sec ; 0x1a20
        0x00001cea:    f7fffe80    ....    BL       clr_all_panel ; 0x19ee
        0x00001cee:    2001        .       MOVS     r0,#1
        0x00001cf0:    f7fffeaa    ....    BL       display_status ; 0x1a48
        0x00001cf4:    492c        ,I      LDR      r1,[pc,#176] ; [0x1da8] = 0x2000061c
        0x00001cf6:    311d        .1      ADDS     r1,r1,#0x1d
        0x00001cf8:    1d48        H.      ADDS     r0,r1,#5
        0x00001cfa:    f7fefa6e    ..n.    BL       strcmp ; 0x1da
        0x00001cfe:    2800        .(      CMP      r0,#0
        0x00001d00:    d111        ..      BNE      0x1d26 ; main + 658
        0x00001d02:    a13a        :.      ADR      r1,{pc}+0xea ; 0x1dec
        0x00001d04:    2002        .       MOVS     r0,#2
        0x00001d06:    f000f8af    ....    BL       print_lcd ; 0x1e68
        0x00001d0a:    2002        .       MOVS     r0,#2
        0x00001d0c:    f7fffe88    ....    BL       delay_sec ; 0x1a20
        0x00001d10:    4a25        %J      LDR      r2,[pc,#148] ; [0x1da8] = 0x2000061c
        0x00001d12:    2003        .       MOVS     r0,#3
        0x00001d14:    492f        /I      LDR      r1,[pc,#188] ; [0x1dd4] = 0x40010000
        0x00001d16:    7050        Pp      STRB     r0,[r2,#1]
        0x00001d18:    6808        .h      LDR      r0,[r1,#0]
        0x00001d1a:    038b        ..      LSLS     r3,r1,#14
        0x00001d1c:    4398        .C      BICS     r0,r0,r3
        0x00001d1e:    6008        .`      STR      r0,[r1,#0]
        0x00001d20:    2501        .%      MOVS     r5,#1
        0x00001d22:    60d7        .`      STR      r7,[r2,#0xc]
        0x00001d24:    e7b6        ..      B        0x1c94 ; main + 512
        0x00001d26:    a134        4.      ADR      r1,{pc}+0xd2 ; 0x1df8
        0x00001d28:    2002        .       MOVS     r0,#2
        0x00001d2a:    f000f89d    ....    BL       print_lcd ; 0x1e68
        0x00001d2e:    2003        .       MOVS     r0,#3
        0x00001d30:    1b42        B.      SUBS     r2,r0,r5
        0x00001d32:    481d        .H      LDR      r0,[pc,#116] ; [0x1da8] = 0x2000061c
        0x00001d34:    a133        3.      ADR      r1,{pc}+0xd0 ; 0x1e04
        0x00001d36:    303d        =0      ADDS     r0,r0,#0x3d
        0x00001d38:    f7fffd46    ..F.    BL       __0sprintf$3 ; 0x17c8
        0x00001d3c:    491a        .I      LDR      r1,[pc,#104] ; [0x1da8] = 0x2000061c
        0x00001d3e:    2003        .       MOVS     r0,#3
        0x00001d40:    313d        =1      ADDS     r1,r1,#0x3d
        0x00001d42:    f000f891    ....    BL       print_lcd ; 0x1e68
        0x00001d46:    2002        .       MOVS     r0,#2
        0x00001d48:    f7fffe6a    ..j.    BL       delay_sec ; 0x1a20
        0x00001d4c:    1c6d        m.      ADDS     r5,r5,#1
        0x00001d4e:    2d04        .-      CMP      r5,#4
        0x00001d50:    d10d        ..      BNE      0x1d6e ; main + 730
        0x00001d52:    f7fffe4c    ..L.    BL       clr_all_panel ; 0x19ee
        0x00001d56:    a13c        <.      ADR      r1,{pc}+0xf2 ; 0x1e48
        0x00001d58:    2002        .       MOVS     r0,#2
        0x00001d5a:    f000f885    ....    BL       print_lcd ; 0x1e68
        0x00001d5e:    4b12        .K      LDR      r3,[pc,#72] ; [0x1da8] = 0x2000061c
        0x00001d60:    481c        .H      LDR      r0,[pc,#112] ; [0x1dd4] = 0x40010000
        0x00001d62:    705f        _p      STRB     r7,[r3,#1]
        0x00001d64:    6801        .h      LDR      r1,[r0,#0]
        0x00001d66:    0382        ..      LSLS     r2,r0,#14
        0x00001d68:    4391        .C      BICS     r1,r1,r2
        0x00001d6a:    6001        .`      STR      r1,[r0,#0]
        0x00001d6c:    e00e        ..      B        0x1d8c ; main + 760
        0x00001d6e:    480e        .H      LDR      r0,[pc,#56] ; [0x1da8] = 0x2000061c
        0x00001d70:    68c0        .h      LDR      r0,[r0,#0xc]
        0x00001d72:    281e        .(      CMP      r0,#0x1e
        0x00001d74:    d10c        ..      BNE      0x1d90 ; main + 764
        0x00001d76:    a139        9.      ADR      r1,{pc}+0xe6 ; 0x1e5c
        0x00001d78:    2001        .       MOVS     r0,#1
        0x00001d7a:    f000f875    ..u.    BL       print_lcd ; 0x1e68
        0x00001d7e:    4b0a        .K      LDR      r3,[pc,#40] ; [0x1da8] = 0x2000061c
        0x00001d80:    4914        .I      LDR      r1,[pc,#80] ; [0x1dd4] = 0x40010000
        0x00001d82:    705f        _p      STRB     r7,[r3,#1]
        0x00001d84:    6808        .h      LDR      r0,[r1,#0]
        0x00001d86:    038a        ..      LSLS     r2,r1,#14
        0x00001d88:    4390        .C      BICS     r0,r0,r2
        0x00001d8a:    6008        .`      STR      r0,[r1,#0]
        0x00001d8c:    60df        .`      STR      r7,[r3,#0xc]
        0x00001d8e:    e6cd        ..      B        0x1b2c ; main + 152
        0x00001d90:    4805        .H      LDR      r0,[pc,#20] ; [0x1da8] = 0x2000061c
        0x00001d92:    68c0        .h      LDR      r0,[r0,#0xc]
        0x00001d94:    281e        .(      CMP      r0,#0x1e
        0x00001d96:    d9c5        ..      BLS      0x1d24 ; main + 656
        0x00001d98:    e6c8        ..      B        0x1b2c ; main + 152
    $d
        0x00001d9a:    0000        ..      DCW    0
        0x00001d9c:    50000100    ...P    DCD    1342177536
        0x00001da0:    02faf080    ....    DCD    50000000
        0x00001da4:    00001731    1...    DCD    5937
        0x00001da8:    2000061c    ...     DCD    536872476
        0x00001dac:    6e65704f    Open    DCD    1852141647
        0x00001db0:    20676e69    ing     DCD    543649385
        0x00001db4:    726f6f64    door    DCD    1919905636
        0x00001db8:    00000000    ....    DCD    0
        0x00001dbc:    736f6c43    Clos    DCD    1936682051
        0x00001dc0:    20676e69    ing     DCD    543649385
        0x00001dc4:    726f6f64    door    DCD    1919905636
        0x00001dc8:    00000000    ....    DCD    0
        0x00001dcc:    454c4449    IDLE    DCD    1162626121
        0x00001dd0:    00000000    ....    DCD    0
        0x00001dd4:    40010000    ...@    DCD    1073807360
        0x00001dd8:    65746e45    Ente    DCD    1702129221
        0x00001ddc:    6f592072    r Yo    DCD    1868111986
        0x00001de0:    43207275    ur C    DCD    1126199925
        0x00001de4:    0065646f    ode.    DCD    6644847
        0x00001de8:    00006325    %c..    DCD    25381
        0x00001dec:    72726f43    Corr    DCD    1920102211
        0x00001df0:    20746365    ect     DCD    544498533
        0x00001df4:    00000021    !...    DCD    33
        0x00001df8:    6f636e49    Inco    DCD    1868787273
        0x00001dfc:    63657272    rrec    DCD    1667592818
        0x00001e00:    00212074    t !.    DCD    2170996
        0x00001e04:    61206425    %d a    DCD    1629512741
        0x00001e08:    6d657474    ttem    DCD    1835365492
        0x00001e0c:    6c207370    ps l    DCD    1814066032
        0x00001e10:    00746665    eft.    DCD    7628389
        0x00001e14:    63616552    Reac    DCD    1667327314
        0x00001e18:    20646568    hed     DCD    543450472
        0x00001e1c:    2078616d    max     DCD    544760173
        0x00001e20:    65747461    atte    DCD    1702130785
        0x00001e24:    0073706d    mps.    DCD    7565421
        0x00001e28:    2050544f    OTP     DCD    542135375
        0x00001e2c:    746e6573    sent    DCD    1953391987
        0x00001e30:    61697620     via    DCD    1634301472
        0x00001e34:    00544220     BT.    DCD    5521952
        0x00001e38:    65746e45    Ente    DCD    1702129221
        0x00001e3c:    6f592072    r Yo    DCD    1868111986
        0x00001e40:    4f207275    ur O    DCD    1327526517
        0x00001e44:    00005054    TP..    DCD    20564
        0x00001e48:    63616552    Reac    DCD    1667327314
        0x00001e4c:    20646568    hed     DCD    543450472
        0x00001e50:    2078614d    Max     DCD    544760141
        0x00001e54:    65747461    atte    DCD    1702130785
        0x00001e58:    0073706d    mps.    DCD    7565421
        0x00001e5c:    656d6954    Time    DCD    1701669204
        0x00001e60:    756f2064    d ou    DCD    1970217060
        0x00001e64:    00002174    t!..    DCD    8564
    $t
    i.print_lcd
    print_lcd
        0x00001e68:    b570        p.      PUSH     {r4-r6,lr}
        0x00001e6a:    4606        .F      MOV      r6,r0
        0x00001e6c:    460d        .F      MOV      r5,r1
        0x00001e6e:    2400        .$      MOVS     r4,#0
        0x00001e70:    782a        *x      LDRB     r2,[r5,#0]
        0x00001e72:    1c6d        m.      ADDS     r5,r5,#1
        0x00001e74:    b2e1        ..      UXTB     r1,r4
        0x00001e76:    4630        0F      MOV      r0,r6
        0x00001e78:    f7fffba2    ....    BL       Show_Word ; 0x15c0
        0x00001e7c:    1c64        d.      ADDS     r4,r4,#1
        0x00001e7e:    2c0f        .,      CMP      r4,#0xf
        0x00001e80:    dc02        ..      BGT      0x1e88 ; print_lcd + 32
        0x00001e82:    7828        (x      LDRB     r0,[r5,#0]
        0x00001e84:    2800        .(      CMP      r0,#0
        0x00001e86:    d1f3        ..      BNE      0x1e70 ; print_lcd + 8
        0x00001e88:    bd70        p.      POP      {r4-r6,pc}
        0x00001e8a:    0000        ..      MOVS     r0,r0
    i.sendOTP
    sendOTP
        0x00001e8c:    b510        ..      PUSH     {r4,lr}
        0x00001e8e:    2205        ."      MOVS     r2,#5
        0x00001e90:    4907        .I      LDR      r1,[pc,#28] ; [0x1eb0] = 0x1efc
        0x00001e92:    2000        .       MOVS     r0,#0
        0x00001e94:    f7feff5c    ..\.    BL       DrvUART_Write ; 0xd50
        0x00001e98:    4905        .I      LDR      r1,[pc,#20] ; [0x1eb0] = 0x1efc
        0x00001e9a:    4806        .H      LDR      r0,[pc,#24] ; [0x1eb4] = 0x20000639
        0x00001e9c:    3108        .1      ADDS     r1,r1,#8
        0x00001e9e:    f7fef98e    ....    BL       strcat ; 0x1be
        0x00001ea2:    4601        .F      MOV      r1,r0
        0x00001ea4:    2206        ."      MOVS     r2,#6
        0x00001ea6:    2000        .       MOVS     r0,#0
        0x00001ea8:    f7feff52    ..R.    BL       DrvUART_Write ; 0xd50
        0x00001eac:    bd10        ..      POP      {r4,pc}
    $d
        0x00001eae:    0000        ..      DCW    0
        0x00001eb0:    00001efc    ....    DCD    7932
        0x00001eb4:    20000639    9..     DCD    536872505
    $t
    i.servo_close
    servo_close
        0x00001eb8:    4901        .I      LDR      r1,[pc,#4] ; [0x1ec0] = 0x2000061c
        0x00001eba:    2080        .       MOVS     r0,#0x80
        0x00001ebc:    6148        Ha      STR      r0,[r1,#0x14]
        0x00001ebe:    4770        pG      BX       lr
    $d
        0x00001ec0:    2000061c    ...     DCD    536872476
    $t
    i.servo_open
    servo_open
        0x00001ec4:    b570        p.      PUSH     {r4-r6,lr}
        0x00001ec6:    4c08        .L      LDR      r4,[pc,#32] ; [0x1ee8] = 0x2000061c
        0x00001ec8:    2016        .       MOVS     r0,#0x16
        0x00001eca:    4d08        .M      LDR      r5,[pc,#32] ; [0x1eec] = 0x4e20
        0x00001ecc:    6160        `a      STR      r0,[r4,#0x14]
        0x00001ece:    b281        ..      UXTH     r1,r0
        0x00001ed0:    2000        .       MOVS     r0,#0
        0x00001ed2:    f7fffa3d    ..=.    BL       PWM_Servo ; 0x1350
        0x00001ed6:    4628        (F      MOV      r0,r5
        0x00001ed8:    f7fefc8a    ....    BL       DrvSYS_Delay ; 0x7f0
        0x00001edc:    6960        `i      LDR      r0,[r4,#0x14]
        0x00001ede:    1c40        @.      ADDS     r0,r0,#1
        0x00001ee0:    6160        `a      STR      r0,[r4,#0x14]
        0x00001ee2:    2880        .(      CMP      r0,#0x80
        0x00001ee4:    d9f3        ..      BLS      0x1ece ; servo_open + 10
        0x00001ee6:    bd70        p.      POP      {r4-r6,pc}
    $d
        0x00001ee8:    2000061c    ...     DCD    536872476
        0x00001eec:    00004e20     N..    DCD    20000
    $d.realdata
    .constdata
        0x00001ef0:    0d4b4341    ACK.    DCD    223036225
        0x00001ef4:    0000000a    ....    DCD    10
        0x00001ef8:    00000000    ....    DCD    0
        0x00001efc:    3a50544f    OTP:    DCD    978342991
        0x00001f00:    00000009    ....    DCD    9
        0x00001f04:    00000d0a    ....    DCD    3338
        0x00001f08:    74532020      St    DCD    1951604768
        0x00001f0c:    73757461    atus    DCD    1937077345
        0x00001f10:    6f4c203a    : Lo    DCD    1867259962
        0x00001f14:    64656b63    cked    DCD    1684368227
        0x00001f18:    00002020      ..    DCD    8224
        0x00001f1c:    74532020      St    DCD    1951604768
        0x00001f20:    73757461    atus    DCD    1937077345
        0x00001f24:    6e55203a    : Un    DCD    1851072570
        0x00001f28:    6b636f6c    lock    DCD    1801678700
        0x00001f2c:    20206465    ed      DCD    538993765
        0x00001f30:    00000000    ....    DCD    0
    .constdata
        0x00001f34:    003e3d3b    ;=>.    DCD    4078907
    .constdata
        0x00001f38:    00000001    ....    DCD    1
        0x00001f3c:    00000002    ....    DCD    2
        0x00001f40:    00000002    ....    DCD    2
        0x00001f44:    00000004    ....    DCD    4
    Region$$Table$$Base
        0x00001f48:    00001f68    h...    DCD    8040
        0x00001f4c:    20000000    ...     DCD    536870912
        0x00001f50:    00000694    ....    DCD    1684
        0x00001f54:    0000180a    ....    DCD    6154
        0x00001f58:    000025fc    .%..    DCD    9724
        0x00001f5c:    20000694    ...     DCD    536872596
        0x00001f60:    0000041c    ....    DCD    1052
        0x00001f64:    0000181a    ....    DCD    6170
    Region$$Table$$Limit

** Section #2 'ER_RW' (SHT_PROGBITS) [SHF_ALLOC + SHF_WRITE]
    Size   : 1684 bytes (alignment 4)
    Address: 0x20000000


** Section #3 'ER_ZI' (SHT_NOBITS) [SHF_ALLOC + SHF_WRITE]
    Size   : 1052 bytes (alignment 8)
    Address: 0x20000694


** Section #4 '.debug_abbrev' (SHT_PROGBITS)
    Size   : 1464 bytes


** Section #5 '.debug_frame' (SHT_PROGBITS)
    Size   : 2176 bytes


** Section #6 '.debug_info' (SHT_PROGBITS)
    Size   : 128636 bytes


** Section #7 '.debug_line' (SHT_PROGBITS)
    Size   : 12904 bytes


** Section #8 '.debug_loc' (SHT_PROGBITS)
    Size   : 4112 bytes


** Section #9 '.debug_macinfo' (SHT_PROGBITS)
    Size   : 155780 bytes


** Section #10 '.debug_pubnames' (SHT_PROGBITS)
    Size   : 2491 bytes


** Section #11 '.symtab' (SHT_SYMTAB)
    Size   : 7376 bytes (alignment 4)
    String table #12 '.strtab'
    Last local symbol no. 283


** Section #12 '.strtab' (SHT_STRTAB)
    Size   : 5168 bytes


** Section #13 '.note' (SHT_NOTE)
    Size   : 28 bytes (alignment 4)


** Section #14 '.comment' (SHT_PROGBITS)
    Size   : 5056 bytes


** Section #15 '.shstrtab' (SHT_STRTAB)
    Size   : 156 bytes


